
add_fun.wasm:   file format wasm 0x1
module name: <add_fun.wasm>

Section Details:

Type[37]:
 - type[0] (i32) -> nil
 - type[1] (i32, i32) -> nil
 - type[2] (i32, i32) -> i32
 - type[3] (i32, i32, i32) -> i32
 - type[4] (i32) -> i32
 - type[5] (i64) -> i64
 - type[6] (i64, i64) -> i64
 - type[7] (i64) -> nil
 - type[8] (i64) -> i32
 - type[9] () -> i64
 - type[10] (i64, i64) -> nil
 - type[11] (i64, i32) -> nil
 - type[12] (i32, i32, i32, i32, i32, i32) -> nil
 - type[13] (i32, i32, i32, i64, i32) -> nil
 - type[14] (i32, i32, i32) -> nil
 - type[15] (i32, i32, i32, i64) -> nil
 - type[16] (i32, i32, i32, i32, i32) -> nil
 - type[17] (i32, i32, i32, i32) -> nil
 - type[18] (i32, i64, i64) -> nil
 - type[19] () -> i32
 - type[20] (i32, i64, i64) -> i32
 - type[21] (i32, i32, i32, i32) -> i32
 - type[22] (i64, i32, i32) -> nil
 - type[23] (i32, i64) -> nil
 - type[24] (f64, i32) -> i32
 - type[25] (i32, i32, i32, i32, i32, i32, i32) -> i32
 - type[26] (i32, i32, i32, i32, i32, i32, i32) -> nil
 - type[27] (i32, i64) -> i32
 - type[28] () -> nil
 - type[29] (i32, i32, i32, i32, i32, i32, i64, i64, i64) -> nil
 - type[30] (i32, i32, i32, i32, i32) -> i32
 - type[31] (i32, f64, i32, i32) -> i32
 - type[32] (i32, i32, i32, i32, i32, i32) -> i32
 - type[33] (i64, i32, i32) -> i32
 - type[34] (i64, i32) -> i32
 - type[35] (i32, i64, i64, i32) -> nil
 - type[36] (i32, i64, i64, i64, i64) -> nil
Import[12]:
 - func[0] sig=5 <_ZN10extism_pdk6extism5alloc17h5ee08df7adf3b190E> <- extism:host/env.alloc
 - func[1] sig=6 <_ZN7add_fun18sum_from_host_impl17ha392a6c0ce514d62E> <- extism:host/user.sum_from_host
 - func[2] sig=7 <_ZN10extism_pdk6extism9error_set17h313dfede138b84ecE> <- extism:host/env.error_set
 - func[3] sig=5 <_ZN10extism_pdk6extism8load_u6417hd40fbd8af9c8b531E> <- extism:host/env.load_u64
 - func[4] sig=8 <_ZN10extism_pdk6extism7load_u817h579f888a0e874271E> <- extism:host/env.load_u8
 - func[5] sig=9 <_ZN10extism_pdk6extism12input_length17hef40ec4bea161e21E> <- extism:host/env.input_length
 - func[6] sig=5 <_ZN10extism_pdk6extism14input_load_u6417h627200e230665f29E> <- extism:host/env.input_load_u64
 - func[7] sig=8 <_ZN10extism_pdk6extism13input_load_u817h055a0a212db69470E> <- extism:host/env.input_load_u8
 - func[8] sig=10 <_ZN10extism_pdk6extism9store_u6417h2a8a6e6114b4ef91E> <- extism:host/env.store_u64
 - func[9] sig=11 <_ZN10extism_pdk6extism8store_u817hf85ed817d98c7040E> <- extism:host/env.store_u8
 - func[10] sig=5 <_ZN10extism_pdk6extism6length17hcb02b4ebcebadab1E> <- extism:host/env.length
 - func[11] sig=10 <_ZN10extism_pdk6extism10output_set17hba7ab900fdccc8c5E> <- extism:host/env.output_set
Function[396]:
 - func[12] sig=1 <_ZN10serde_json2de10from_trait17he37474ae39607711E>
 - func[13] sig=12 <_ZN93_$LT$$RF$mut$u20$serde_json..de..Deserializer$LT$R$GT$$u20$as$u20$serde..de..Deserializer$GT$18deserialize_struct17h061df9ffad7fd2f2E>
 - func[14] sig=13 <_ZN10serde_json2de21Deserializer$LT$R$GT$13parse_decimal17h7f7f453510a89aedE>
 - func[15] sig=13 <_ZN10serde_json2de21Deserializer$LT$R$GT$14f64_from_parts17h23966bdea0412336E>
 - func[16] sig=13 <_ZN10serde_json2de21Deserializer$LT$R$GT$14parse_exponent17h3257780bd2edfaf8E>
 - func[17] sig=13 <_ZN10serde_json2de21Deserializer$LT$R$GT$22parse_decimal_overflow17hd41b63fdcc40ae07E>
 - func[18] sig=14 <_ZN10serde_json2de21Deserializer$LT$R$GT$13parse_integer17h7a8dc8b2f824fb6aE>
 - func[19] sig=15 <_ZN10serde_json2de21Deserializer$LT$R$GT$18parse_long_integer17heac5bfa854cd86dcE>
 - func[20] sig=4 <_ZN10serde_json2de21Deserializer$LT$R$GT$14ignore_integer17hde5676bb58955f50E>
 - func[21] sig=4 <_ZN10serde_json2de21Deserializer$LT$R$GT$15ignore_exponent17hf808878500314bb7E>
 - func[22] sig=16 <_ZN10serde_json2de21Deserializer$LT$R$GT$23parse_exponent_overflow17h10d21cdb973b9b9fE>
 - func[23] sig=3 <_ZN10serde_json2de21Deserializer$LT$R$GT$17peek_invalid_type17hf8dc169e2b34095bE>
 - func[24] sig=4 <_ZN10serde_json2de21Deserializer$LT$R$GT$18parse_object_colon17h36b2a624c71f5e2bE>
 - func[25] sig=0 <_ZN4core3ptr121drop_in_place$LT$add_fun.._..$LT$impl$u20$serde..de..Deserialize$u20$for$u20$add_fun..Add$GT$..deserialize..__Visitor$GT$17hf41c0892b9a8bff1E>
 - func[26] sig=0 <_ZN4core3ptr28drop_in_place$LT$$RF$str$GT$17h99337e9f61fc53fcE>
 - func[27] sig=0 <_ZN4core3ptr45drop_in_place$LT$serde_json..error..Error$GT$17he7d2ed851b3cc741E>
 - func[28] sig=1 <_ZN5serde2de9SeqAccess12next_element17h0851859645e5b261E>
 - func[29] sig=1 <_ZN81_$LT$core..marker..PhantomData$LT$T$GT$$u20$as$u20$serde..de..DeserializeSeed$GT$11deserialize17hb11e1e6a3f07f85aE>
 - func[30] sig=2 <_ZN41_$LT$T$u20$as$u20$serde..de..Expected$GT$3fmt17hdf321f444d25fe5bE>
 - func[31] sig=17 <_ZN5alloc7raw_vec11finish_grow17h75cc3e7ed1341fb1E.llvm.15086629167384057212>
 - func[32] sig=14 <_ZN5alloc7raw_vec19RawVec$LT$T$C$A$GT$7reserve21do_reserve_and_handle17hdb640f8871406cd4E>
 - func[33] sig=18 <_ZN7add_fun13sum_from_host17h0b999b4812455f6fE>
 - func[34] sig=19 <add_numbers>
 - func[35] sig=19 <add_from_host>
 - func[36] sig=19 <add_from_host_one>
 - func[37] sig=4 <_ZN6anyhow5error72_$LT$impl$u20$core..convert..From$LT$E$GT$$u20$for$u20$anyhow..Error$GT$4from17ha55a4bec4535e006E.llvm.1030253459691590260>
 - func[38] sig=2 <_ZN10serde_json5error5Error12fix_position17h41bf85bf98eeb908E>
 - func[39] sig=2 <_ZN41_$LT$T$u20$as$u20$serde..de..Expected$GT$3fmt17h7c2816790a92d911E>
 - func[40] sig=2 <_ZN44_$LT$$RF$T$u20$as$u20$core..fmt..Display$GT$3fmt17h4840a2618ce82bb0E.llvm.1030253459691590260>
 - func[41] sig=2 <_ZN44_$LT$$RF$T$u20$as$u20$core..fmt..Display$GT$3fmt17h887f94fb1c732fccE.llvm.1030253459691590260>
 - func[42] sig=0 <_ZN4core3ptr125drop_in_place$LT$serde..de..impls..$LT$impl$u20$serde..de..Deserialize$u20$for$u20$i64$GT$..deserialize..PrimitiveVisitor$GT$17h1d4dd0f673c74d37E.llvm.1030253459691590260>
 - func[43] sig=0 <_ZN4core3ptr44drop_in_place$LT$std..backtrace..Capture$GT$17h562e73347f08b63eE>
 - func[44] sig=0 <_ZN4core3ptr45drop_in_place$LT$serde_json..error..Error$GT$17he7d2ed851b3cc741E>
 - func[45] sig=0 <_ZN4core3ptr77drop_in_place$LT$anyhow..error..ErrorImpl$LT$serde_json..error..Error$GT$$GT$17ha2fd0efada665a32E>
 - func[46] sig=1 <_ZN4core5error5Error11description17h3ca588bd2d716a9dE>
 - func[47] sig=1 <_ZN4core5error5Error11description17hb3e9e15a3bad5164E>
 - func[48] sig=1 <_ZN4core5error5Error5cause17hd618e1ab6ba4b6a0E>
 - func[49] sig=1 <_ZN4core5error5Error5cause17he38d6c5fd2e44891E>
 - func[50] sig=14 <_ZN4core5error5Error7provide17h3630148d45b65b18E>
 - func[51] sig=14 <_ZN4core5error5Error7provide17he0a268d008a46b96E>
 - func[52] sig=1 <_ZN4core5error5Error7type_id17h4e1e53b0645b2488E>
 - func[53] sig=1 <_ZN4core5error5Error7type_id17hf88902d01fdf2e53E>
 - func[54] sig=2 <_ZN5serde2de5Error13missing_field17hd337412a4f29609bE>
 - func[55] sig=4 <_ZN61_$LT$serde_json..error..Error$u20$as$u20$serde..de..Error$GT$6custom17ha4a4c5e65fcd8692E.llvm.1030253459691590260>
 - func[56] sig=3 <_ZN5serde2de5Error14invalid_length17h4cefe02499f63b06E>
 - func[57] sig=2 <_ZN5serde2de5Error15duplicate_field17hec805cedadcac46dE>
 - func[58] sig=1 <_ZN6anyhow5error10object_ref17h3412bb7c79886825E.llvm.1030253459691590260>
 - func[59] sig=0 <_ZN6anyhow5error11object_drop17h9a4e890726284daaE.llvm.1030253459691590260>
 - func[60] sig=4 <_ZN6anyhow5error12no_backtrace17h206db79473c73424E.llvm.1030253459691590260>
 - func[61] sig=1 <_ZN6anyhow5error12object_boxed17ha10aa366287b6905E.llvm.1030253459691590260>
 - func[62] sig=20 <_ZN6anyhow5error15object_downcast17h3ad0c9b25bd0617cE.llvm.1030253459691590260>
 - func[63] sig=18 <_ZN6anyhow5error17object_drop_front17h9519113aa6260882E.llvm.1030253459691590260>
 - func[64] sig=2 <_ZN6anyhow5error31_$LT$impl$u20$anyhow..Error$GT$9construct17hd6320c48bb5c5d54E.llvm.1030253459691590260>
 - func[65] sig=2 <_ZN70_$LT$anyhow..error..ErrorImpl$LT$E$GT$$u20$as$u20$core..fmt..Debug$GT$3fmt17he54555aa103b6fb4E>
 - func[66] sig=2 <_ZN72_$LT$anyhow..error..ErrorImpl$LT$E$GT$$u20$as$u20$core..fmt..Display$GT$3fmt17h63073cbee44b65bfE>
 - func[67] sig=2 <__rust_alloc>
 - func[68] sig=14 <__rust_dealloc>
 - func[69] sig=21 <__rust_realloc>
 - func[70] sig=2 <__rust_alloc_zeroed>
 - func[71] sig=1 <__rust_alloc_error_handler>
 - func[72] sig=0 <_ZN10extism_pdk6extism10load_input17h98cd9449a00920b1E>
 - func[73] sig=22 <_ZN10extism_pdk6extism5store17h59119f8725bda41aE>
 - func[74] sig=1 <_ZN10extism_pdk6memory6Memory6to_vec17hf550a4b4cc312058E>
 - func[75] sig=10 <_ZN10extism_pdk6memory6Memory10set_output17hb3cf4ce71e4496d3E>
 - func[76] sig=23 <_ZN77_$LT$extism_pdk..memory..Memory$u20$as$u20$core..convert..From$LT$i64$GT$$GT$4from17h0d848ab997a057edE>
 - func[77] sig=0 <_ZN10extism_pdk11input_bytes17hb6bc04dcc6ab3e6bE>
 - func[78] sig=0 <_ZN4core3ptr74drop_in_place$LT$core..option..Option$LT$std..backtrace..Backtrace$GT$$GT$17haddb812335865001E>
 - func[79] sig=1 <_ZN4core5error5Error5cause17h87d8369588d91b22E>
 - func[80] sig=1 <_ZN4core5error5Error5cause17h926d72a6b09dcf5dE>
 - func[81] sig=1 <_ZN4core5error5Error7type_id17h6a702e869c2087adE>
 - func[82] sig=1 <_ZN4core5error5Error7type_id17hd50155af1f1daa25E>
 - func[83] sig=0 <_ZN6anyhow5error11object_drop17h596446c9fbb46b7aE>
 - func[84] sig=20 <_ZN6anyhow5error15object_downcast17h67f6e8b675ecb626E>
 - func[85] sig=18 <_ZN6anyhow5error17object_drop_front17h08cc4b0bc29dca60E>
 - func[86] sig=2 <_ZN70_$LT$anyhow..error..ErrorImpl$LT$E$GT$$u20$as$u20$core..fmt..Debug$GT$3fmt17h3b3048ce8e223e16E>
 - func[87] sig=2 <_ZN72_$LT$anyhow..error..ErrorImpl$LT$E$GT$$u20$as$u20$core..fmt..Display$GT$3fmt17h40a3ff9f8833d946E>
 - func[88] sig=0 <_ZN85_$LT$std..sync..lazy_lock..LazyLock$LT$T$C$F$GT$$u20$as$u20$core..ops..drop..Drop$GT$4drop17h71860678c6f78d4cE>
 - func[89] sig=14 <_ZN66_$LT$i64$u20$as$u20$extism_convert..from_bytes..FromBytesOwned$GT$16from_bytes_owned17h917c176987d4362bE>
 - func[90] sig=2 <_ZN42_$LT$$RF$T$u20$as$u20$core..fmt..Debug$GT$3fmt17hda5785033ed89042E>
 - func[91] sig=0 <_ZN70_$LT$alloc..vec..Vec$LT$T$C$A$GT$$u20$as$u20$core..ops..drop..Drop$GT$4drop17h272d8e0049369eebE>
 - func[92] sig=0 <_ZN4core3ptr26drop_in_place$LT$usize$GT$17h4c3498389769757dE>
 - func[93] sig=0 <_ZN4core3ptr51drop_in_place$LT$core..array..TryFromSliceError$GT$17h55fc80aeeff3bbb3E>
 - func[94] sig=0 <_ZN4core3ptr83drop_in_place$LT$anyhow..error..ErrorImpl$LT$core..array..TryFromSliceError$GT$$GT$17h6d3eb4f9567e7aacE>
 - func[95] sig=1 <_ZN4core5error5Error11description17h0050efb3d3ef41a0E>
 - func[96] sig=1 <_ZN4core5error5Error6source17h5dbf9712ae5399c4E>
 - func[97] sig=14 <_ZN4core5error5Error7provide17h0d4ad23138c12afaE>
 - func[98] sig=14 <_ZN4core5error5Error7provide17hf6db82cffa13758bE>
 - func[99] sig=2 <_ZN67_$LT$core..array..TryFromSliceError$u20$as$u20$core..fmt..Debug$GT$3fmt17hcdd719dc4652ca5cE>
 - func[100] sig=1 <_ZN69_$LT$core..array..TryFromSliceError$u20$as$u20$core..error..Error$GT$11description17h38c5950d33bdf280E>
 - func[101] sig=2 <_ZN69_$LT$core..array..TryFromSliceError$u20$as$u20$core..fmt..Display$GT$3fmt17h5ca8ce988735b0b4E>
 - func[102] sig=1 <_ZN6anyhow5error10object_ref17h1beb0fdaaeb9f3a1E.llvm.16892013313707293455>
 - func[103] sig=4 <_ZN6anyhow5error12no_backtrace17h206db79473c73424E.llvm.16892013313707293455>
 - func[104] sig=1 <_ZN6anyhow5error12object_boxed17h92089598b541dd51E.llvm.16892013313707293455>
 - func[105] sig=4 <_ZN6anyhow5error31_$LT$impl$u20$anyhow..Error$GT$9construct17h49687edb59a7f298E.llvm.16892013313707293455>
 - func[106] sig=19 <_ZN6anyhow5error72_$LT$impl$u20$core..convert..From$LT$E$GT$$u20$for$u20$anyhow..Error$GT$4from17hec36e3561a7bf9b7E>
 - func[107] sig=0 <_ZN4core3ptr37drop_in_place$LT$core..fmt..Error$GT$17hd0430d4327e7f8e4E>
 - func[108] sig=0 <_ZN4core3ptr42drop_in_place$LT$alloc..string..String$GT$17h612bec53deefb341E>
 - func[109] sig=2 <_ZN53_$LT$core..fmt..Error$u20$as$u20$core..fmt..Debug$GT$3fmt17h3c8eb51177be1431E>
 - func[110] sig=2 <_ZN58_$LT$alloc..string..String$u20$as$u20$core..fmt..Debug$GT$3fmt17h9355f792e978a73cE>
 - func[111] sig=2 <_ZN58_$LT$alloc..string..String$u20$as$u20$core..fmt..Write$GT$10write_char17h36d97d1c4726ee61E>
 - func[112] sig=3 <_ZN58_$LT$alloc..string..String$u20$as$u20$core..fmt..Write$GT$9write_str17h932675f2c687b13fE>
 - func[113] sig=3 <_ZN10serde_json5error5Error6syntax17hcf2464e96d648698E>
 - func[114] sig=2 <_ZN67_$LT$serde_json..error..ErrorCode$u20$as$u20$core..fmt..Display$GT$3fmt17ha93854dbd261b59bE>
 - func[115] sig=1 <_ZN63_$LT$serde_json..error..Error$u20$as$u20$core..error..Error$GT$6source17hcc0d52be7f9b60acE>
 - func[116] sig=2 <_ZN63_$LT$serde_json..error..Error$u20$as$u20$core..fmt..Display$GT$3fmt17h1b459c2ba7910cb9E>
 - func[117] sig=2 <_ZN61_$LT$serde_json..error..Error$u20$as$u20$core..fmt..Debug$GT$3fmt17h9733e9e837a6f09cE>
 - func[118] sig=4 <_ZN61_$LT$serde_json..error..Error$u20$as$u20$serde..de..Error$GT$6custom17h1bdc2d3c05d55965E.llvm.9665005564904636706>
 - func[119] sig=4 <_ZN10serde_json5error10make_error17h299d5646e1f5c61dE>
 - func[120] sig=3 <_ZN61_$LT$serde_json..error..Error$u20$as$u20$serde..de..Error$GT$12invalid_type17hdf145dd51d6fac63E>
 - func[121] sig=2 <_ZN72_$LT$serde_json..error..JsonUnexpected$u20$as$u20$core..fmt..Display$GT$3fmt17h403ffbd3ecd31e43E>
 - func[122] sig=3 <_ZN61_$LT$serde_json..error..Error$u20$as$u20$serde..de..Error$GT$13invalid_value17hfde32ae7200bef05E>
 - func[123] sig=3 <_ZN10serde_json2de12ParserNumber12invalid_type17hffeb46f7dffa2338E>
 - func[124] sig=2 <_ZN44_$LT$$RF$T$u20$as$u20$core..fmt..Display$GT$3fmt17hbf4f337fb1fa1523E>
 - func[125] sig=2 <_ZN4core3fmt5Write9write_fmt17h767ead49ef32e465E>
 - func[126] sig=0 <_ZN4core3ptr205drop_in_place$LT$$LT$alloc..boxed..Box$LT$dyn$u20$core..error..Error$u2b$core..marker..Send$u2b$core..marker..Sync$GT$$u20$as$u20$core..convert..From$LT$alloc..string..String$GT$$GT$..from..StringError$GT$17he06e1efc5146ab5eE>
 - func[127] sig=2 <_ZN58_$LT$alloc..string..String$u20$as$u20$core..fmt..Write$GT$10write_char17h36d97d1c4726ee61E>
 - func[128] sig=3 <_ZN58_$LT$alloc..string..String$u20$as$u20$core..fmt..Write$GT$9write_str17h932675f2c687b13fE>
 - func[129] sig=2 <_ZN44_$LT$$RF$T$u20$as$u20$core..fmt..Display$GT$3fmt17hf784e3036af55c4bE>
 - func[130] sig=17 <_ZN5alloc7raw_vec11finish_grow17hbced5976ffca8891E.llvm.17818969842598828770>
 - func[131] sig=14 <_ZN5alloc7raw_vec19RawVec$LT$T$C$A$GT$7reserve21do_reserve_and_handle17hf18501f43739fdf7E>
 - func[132] sig=0 <_ZN5alloc7raw_vec19RawVec$LT$T$C$A$GT$8grow_one17hf424a92d3d7ffef1E>
 - func[133] sig=14 <_ZN4core4char7methods15encode_utf8_raw17h8d8d7604367ece7dE>
 - func[134] sig=1 <_ZN70_$LT$serde_json..read..SliceRead$u20$as$u20$serde_json..read..Read$GT$8position17h6ad6e16fd2b975ebE>
 - func[135] sig=1 <_ZN70_$LT$serde_json..read..SliceRead$u20$as$u20$serde_json..read..Read$GT$13peek_position17h4b945887c7394f47E>
 - func[136] sig=14 <_ZN70_$LT$serde_json..read..SliceRead$u20$as$u20$serde_json..read..Read$GT$9parse_str17h792329b82661d75cE>
 - func[137] sig=3 <_ZN10serde_json4read12parse_escape17h085e7dfd8e5babfdE>
 - func[138] sig=4 <_ZN70_$LT$serde_json..read..SliceRead$u20$as$u20$serde_json..read..Read$GT$10ignore_str17h04eaeaf9df5b67e9E>
 - func[139] sig=1 <_ZN70_$LT$serde_json..read..SliceRead$u20$as$u20$serde_json..read..Read$GT$17decode_hex_escape17h5b130f80ad3f4319E>
 - func[140] sig=1 <_ZN10serde_json4read11peek_or_eof17h64a7395a2cde1b5bE>
 - func[141] sig=2 <_ZN10serde_json4read5error17h8cf867fa88878ebfE>
 - func[142] sig=1 <_ZN10serde_json4read12parse_escape16encode_surrogate17hec7670e6d9382bc1E>
 - func[143] sig=14 <_ZN5alloc3vec16Vec$LT$T$C$A$GT$17extend_from_slice17h99ea9ac32712529eE>
 - func[144] sig=11 <_ZN3ryu6pretty8mantissa19write_mantissa_long17h5b4dd8bea4637dcdE>
 - func[145] sig=24 <_ZN3ryu6pretty8format6417ha05332ef29b82f13E>
 - func[146] sig=2 <_ZN4core3fmt5Write9write_fmt17h68bf47748adb2a6bE>
 - func[147] sig=0 <_ZN4core3ptr112drop_in_place$LT$$LT$serde..de..WithDecimalPoint$u20$as$u20$core..fmt..Display$GT$..fmt..LookForDecimalPoint$GT$17haf6d6767153ec90bE>
 - func[148] sig=2 <_ZN60_$LT$serde..de..Unexpected$u20$as$u20$core..fmt..Display$GT$3fmt17h91eef5a00191b720E>
 - func[149] sig=2 <_ZN66_$LT$serde..de..WithDecimalPoint$u20$as$u20$core..fmt..Display$GT$3fmt17h72518f5eb8fb0904E>
 - func[150] sig=2 <_ZN47_$LT$$RF$str$u20$as$u20$serde..de..Expected$GT$3fmt17hed40e77e00242c06E>
 - func[151] sig=3 <_ZN66_$LT$dyn$u20$serde..de..Expected$u20$as$u20$core..fmt..Display$GT$3fmt17h1397c36fdafa70a5E>
 - func[152] sig=3 <_ZN128_$LT$$LT$serde..de..WithDecimalPoint$u20$as$u20$core..fmt..Display$GT$..fmt..LookForDecimalPoint$u20$as$u20$core..fmt..Write$GT$9write_str17hf4dcb8f52a4157b1E>
 - func[153] sig=2 <_ZN128_$LT$$LT$serde..de..WithDecimalPoint$u20$as$u20$core..fmt..Display$GT$..fmt..LookForDecimalPoint$u20$as$u20$core..fmt..Write$GT$10write_char17h53a872306cf84f59E>
 - func[154] sig=2 <_ZN42_$LT$$RF$T$u20$as$u20$core..fmt..Debug$GT$3fmt17hc9f1d85dc7c7bc5eE>
 - func[155] sig=2 <_ZN143_$LT$serde..de..impls..$LT$impl$u20$serde..de..Deserialize$u20$for$u20$i64$GT$..deserialize..PrimitiveVisitor$u20$as$u20$serde..de..Visitor$GT$9expecting17hbbebc2ebbc6e1671E>
 - func[156] sig=2 <_ZN44_$LT$$RF$T$u20$as$u20$core..fmt..Display$GT$3fmt17h2deedc2bd2a7c30fE>
 - func[157] sig=2 <_ZN4core3fmt5Write9write_fmt17ha4d742e1f6e39a2fE>
 - func[158] sig=0 <_ZN4core3ptr42drop_in_place$LT$alloc..string..String$GT$17h5e8acb5585233a79E>
 - func[159] sig=17 <_ZN4core5slice5index5range17h744ad5edcc76a6abE>
 - func[160] sig=2 <_ZN58_$LT$alloc..string..String$u20$as$u20$core..fmt..Write$GT$10write_char17h36d97d1c4726ee61E>
 - func[161] sig=0 <_ZN5alloc7raw_vec19RawVec$LT$T$C$A$GT$8grow_one17h4aee2dcdd3dfb194E>
 - func[162] sig=14 <_ZN5alloc7raw_vec19RawVec$LT$T$C$A$GT$7reserve21do_reserve_and_handle17h0cc3963ef4f47d9fE>
 - func[163] sig=3 <_ZN58_$LT$alloc..string..String$u20$as$u20$core..fmt..Write$GT$9write_str17h932675f2c687b13fE>
 - func[164] sig=16 <_ZN5alloc6string6String13replace_range17hfd12e869775d44dfE>
 - func[165] sig=17 <_ZN5alloc7raw_vec11finish_grow17h166080c0da7b4fc4E.llvm.14897176874709543215>
 - func[166] sig=14 <_ZN4core3str21_$LT$impl$u20$str$GT$16trim_end_matches17h9224ac27b10a805eE>
 - func[167] sig=0 <_ZN81_$LT$alloc..vec..splice..Splice$LT$I$C$A$GT$$u20$as$u20$core..ops..drop..Drop$GT$4drop17h385c5ef3887487cfE>
 - func[168] sig=2 <_ZN6anyhow5error60_$LT$impl$u20$core..fmt..Debug$u20$for$u20$anyhow..Error$GT$3fmt17h34e413ab5fa0fb0dE>
 - func[169] sig=0 <_ZN6anyhow5error65_$LT$impl$u20$core..ops..drop..Drop$u20$for$u20$anyhow..Error$GT$4drop17h79111a42652b3c3dE>
 - func[170] sig=3 <_ZN4core3fmt9Formatter9write_fmt17hc71e518628a78d07E>
 - func[171] sig=0 <_ZN4core3ptr37drop_in_place$LT$core..fmt..Error$GT$17hf2e74aad5d2bd585E>
 - func[172] sig=0 <_ZN4core3ptr42drop_in_place$LT$alloc..string..String$GT$17h5e8acb5585233a79E>
 - func[173] sig=0 <_ZN4core3ptr70drop_in_place$LT$anyhow..fmt..Indented$LT$core..fmt..Formatter$GT$$GT$17he9055561e2657f12E>
 - func[174] sig=2 <_ZN53_$LT$core..fmt..Error$u20$as$u20$core..fmt..Debug$GT$3fmt17h3c8eb51177be1431E>
 - func[175] sig=2 <_ZN58_$LT$alloc..string..String$u20$as$u20$core..fmt..Write$GT$10write_char17h36d97d1c4726ee61E>
 - func[176] sig=3 <_ZN58_$LT$alloc..string..String$u20$as$u20$core..fmt..Write$GT$9write_str17h932675f2c687b13fE>
 - func[177] sig=2 <_ZN60_$LT$alloc..string..String$u20$as$u20$core..fmt..Display$GT$3fmt17hdc6c0eb27a5fac8aE>
 - func[178] sig=1 <_ZN6anyhow5error9ErrorImpl5error17hfdfe4ec665284038E>
 - func[179] sig=2 <_ZN6anyhow3fmt42_$LT$impl$u20$anyhow..error..ErrorImpl$GT$5debug17h1e3fb8bcac56a53aE>
 - func[180] sig=2 <_ZN4core3fmt5Write10write_char17h59db31d6096be93aE>
 - func[181] sig=3 <_ZN67_$LT$anyhow..fmt..Indented$LT$T$GT$$u20$as$u20$core..fmt..Write$GT$9write_str17h31bcf0f81168935aE>
 - func[182] sig=2 <_ZN4core3fmt5Write9write_fmt17h4394b82d097e79c4E>
 - func[183] sig=0 <_ZN4core3ptr40drop_in_place$LT$anyhow..ensure..Buf$GT$17hcb1643bbd4c9f17cE>
 - func[184] sig=1 <_ZN36_$LT$T$u20$as$u20$core..any..Any$GT$7type_id17h88d3cb239ded0a8bE>
 - func[185] sig=1 <_ZN36_$LT$T$u20$as$u20$core..any..Any$GT$7type_id17h9571516faba776b2E>
 - func[186] sig=1 <_ZN36_$LT$T$u20$as$u20$core..any..Any$GT$7type_id17heb1b6f3656f479feE>
 - func[187] sig=2 <_ZN42_$LT$$RF$T$u20$as$u20$core..fmt..Debug$GT$3fmt17h14763f8aa15690f8E>
 - func[188] sig=3 <_ZN69_$LT$std..sys..os_str..bytes..Slice$u20$as$u20$core..fmt..Display$GT$3fmt17h17d63d8a500a28beE>
 - func[189] sig=2 <_ZN44_$LT$$RF$T$u20$as$u20$core..fmt..Display$GT$3fmt17h6b46d3751c4e6376E>
 - func[190] sig=14 <_ZN5alloc7raw_vec19RawVec$LT$T$C$A$GT$7reserve21do_reserve_and_handle17h95d0e43a1ec4579dE>
 - func[191] sig=2 <_ZN4core3fmt5Write9write_fmt17h5450563fbb96cb70E>
 - func[192] sig=3 <_ZN4core3ops8function6FnOnce40call_once$u7b$$u7b$vtable.shim$u7d$$u7d$17h200285c5e14f2ffcE>
 - func[193] sig=0 <_ZN4core3ptr118drop_in_place$LT$$LT$std..backtrace..Backtrace$u20$as$u20$core..fmt..Display$GT$..fmt..$u7b$$u7b$closure$u7d$$u7d$$GT$17hf5aae282f3e5791cE>
 - func[194] sig=0 <_ZN4core3ptr122drop_in_place$LT$$RF$alloc..boxed..Box$LT$dyn$u20$core..error..Error$u2b$core..marker..Send$u2b$core..marker..Sync$GT$$GT$17hafb4b80ed40fbfe0E>
 - func[195] sig=0 <_ZN4core3ptr29drop_in_place$LT$$LP$$RP$$GT$17hf58ee1d6076085b1E>
 - func[196] sig=0 <_ZN4core3ptr42drop_in_place$LT$alloc..string..String$GT$17he0b9c7b9b779f017E>
 - func[197] sig=0 <_ZN4core3ptr77drop_in_place$LT$std..panicking..begin_panic_handler..FormatStringPayload$GT$17h0cdb96bb4afb8b69E>
 - func[198] sig=1 <_ZN4core9panicking13assert_failed17h690f3bdf8855e416E>
 - func[199] sig=2 <_ZN50_$LT$$BP$mut$u20$T$u20$as$u20$core..fmt..Debug$GT$3fmt17hb396f8762c49fd69E>
 - func[200] sig=2 <_ZN58_$LT$alloc..string..String$u20$as$u20$core..fmt..Write$GT$10write_char17h36d97d1c4726ee61E>
 - func[201] sig=0 <_ZN5alloc7raw_vec19RawVec$LT$T$C$A$GT$8grow_one17h249dd74981fa9ca3E>
 - func[202] sig=3 <_ZN58_$LT$alloc..string..String$u20$as$u20$core..fmt..Write$GT$9write_str17h932675f2c687b13fE>
 - func[203] sig=17 <_ZN5alloc7raw_vec11finish_grow17ha0fc23de3e124241E>
 - func[204] sig=2 <_ZN60_$LT$alloc..string..String$u20$as$u20$core..fmt..Display$GT$3fmt17hdc6c0eb27a5fac8aE>
 - func[205] sig=1 <_ZN8dlmalloc8dlmalloc17Dlmalloc$LT$A$GT$12unlink_chunk17h8d0d81757dd7de5dE>
 - func[206] sig=1 <_ZN8dlmalloc8dlmalloc17Dlmalloc$LT$A$GT$13dispose_chunk17hc51238bb547bf9d7E>
 - func[207] sig=1 <_ZN8dlmalloc8dlmalloc17Dlmalloc$LT$A$GT$18insert_large_chunk17h67b2ff06c0e8b9e0E>
 - func[208] sig=0 <_ZN8dlmalloc8dlmalloc17Dlmalloc$LT$A$GT$4free17h21bf9d7572bd86f3E>
 - func[209] sig=4 <_ZN8dlmalloc8dlmalloc17Dlmalloc$LT$A$GT$6malloc17h0483a0dc0f5e490bE>
 - func[210] sig=2 <_ZN8dlmalloc8dlmalloc17Dlmalloc$LT$A$GT$8memalign17hae661cd81f1d1708E>
 - func[211] sig=1 <_ZN3std3sys4sync4once10no_threads4Once4call17h61ee0b8e18c5555fE>
 - func[212] sig=2 <_ZN79_$LT$std..backtrace_rs..symbolize..SymbolName$u20$as$u20$core..fmt..Display$GT$3fmt17h17dfd954c032b1d6E>
 - func[213] sig=0 <_ZN3std9backtrace9Backtrace7capture17hc0c5f1c907448d9dE>
 - func[214] sig=2 <_ZN64_$LT$std..backtrace..Backtrace$u20$as$u20$core..fmt..Display$GT$3fmt17he7e239f78d6c9122E>
 - func[215] sig=25 <_ZN3std12backtrace_rs5print17BacktraceFrameFmt21print_raw_with_column17hf2c29a0ac3db7e64E>
 - func[216] sig=3 <_ZN64_$LT$std..backtrace..Backtrace$u20$as$u20$core..fmt..Display$GT$3fmt28_$u7b$$u7b$closure$u7d$$u7d$17h1414633b5015c602E>
 - func[217] sig=2 <_ZN60_$LT$std..io..error..Error$u20$as$u20$core..fmt..Display$GT$3fmt17hbda3a27c1eb6710cE>
 - func[218] sig=1 <_ZN60_$LT$std..io..error..Error$u20$as$u20$core..error..Error$GT$6source17h798e753712748899E>
 - func[219] sig=0 <_ZN3std10sys_common9backtrace26__rust_end_short_backtrace17hbdf3ddeb21a1e747E>
 - func[220] sig=0 <_ZN3std9panicking19begin_panic_handler28_$u7b$$u7b$closure$u7d$$u7d$17hb6cd8464ed39ae71E>
 - func[221] sig=1 <_ZN3std5alloc24default_alloc_error_hook17h9d6d7bb51d97ec4fE>
 - func[222] sig=2 <__rdl_alloc>
 - func[223] sig=14 <__rdl_dealloc>
 - func[224] sig=21 <__rdl_realloc>
 - func[225] sig=2 <__rdl_alloc_zeroed>
 - func[226] sig=0 <rust_begin_unwind>
 - func[227] sig=1 <_ZN102_$LT$std..panicking..begin_panic_handler..FormatStringPayload$u20$as$u20$core..panic..PanicPayload$GT$8take_box17he725486881b42bbeE>
 - func[228] sig=1 <_ZN102_$LT$std..panicking..begin_panic_handler..FormatStringPayload$u20$as$u20$core..panic..PanicPayload$GT$3get17ha699b76f30386534E>
 - func[229] sig=1 <_ZN99_$LT$std..panicking..begin_panic_handler..StaticStrPayload$u20$as$u20$core..panic..PanicPayload$GT$8take_box17h00db27ffc0f86bc9E>
 - func[230] sig=1 <_ZN99_$LT$std..panicking..begin_panic_handler..StaticStrPayload$u20$as$u20$core..panic..PanicPayload$GT$3get17h25e87be0acf0cba3E>
 - func[231] sig=12 <_ZN3std9panicking20rust_panic_with_hook17h6731baa78621a747E>
 - func[232] sig=1 <rust_panic>
 - func[233] sig=1 <__rg_oom>
 - func[234] sig=2 <__rust_start_panic>
 - func[235] sig=14 <_ZN61_$LT$dlmalloc..sys..System$u20$as$u20$dlmalloc..Allocator$GT$5alloc17h32bf5aa7613bca1cE>
 - func[236] sig=4 <_ZN104_$LT$core..iter..sources..from_fn..FromFn$LT$F$GT$$u20$as$u20$core..iter..traits..iterator..Iterator$GT$4next17he72b0fec072444acE>
 - func[237] sig=2 <_ZN81_$LT$core..str..iter..Chars$u20$as$u20$core..iter..traits..iterator..Iterator$GT$5count17h752ef6142eb5b05fE>
 - func[238] sig=2 <_ZN42_$LT$$RF$T$u20$as$u20$core..fmt..Debug$GT$3fmt17h007b92949007655cE>
 - func[239] sig=2 <_ZN50_$LT$$RF$mut$u20$T$u20$as$u20$core..fmt..Debug$GT$3fmt17h2e9209fe216a99cdE>
 - func[240] sig=2 <_ZN42_$LT$$RF$T$u20$as$u20$core..fmt..Debug$GT$3fmt17h004e705c49e70e5dE>
 - func[241] sig=2 <_ZN42_$LT$$RF$T$u20$as$u20$core..fmt..Debug$GT$3fmt17hf7b687bde8294458E>
 - func[242] sig=2 <_ZN44_$LT$$RF$T$u20$as$u20$core..fmt..Display$GT$3fmt17he408656639b09253E>
 - func[243] sig=2 <_ZN71_$LT$rustc_demangle..legacy..Demangle$u20$as$u20$core..fmt..Display$GT$3fmt17hea1262fa5364aa2fE>
 - func[244] sig=2 <_ZN14rustc_demangle2v07Printer10print_path17h84e604bcaa186aa9E>
 - func[245] sig=2 <_ZN45_$LT$$LP$$RP$$u20$as$u20$core..fmt..Debug$GT$3fmt17h675d5aaad6bc9529E>
 - func[246] sig=2 <_ZN4core3fmt5Write10write_char17h9ae3120669e0ceb2E>
 - func[247] sig=2 <_ZN4core3fmt5Write9write_fmt17h3b40b0bb0d363359E>
 - func[248] sig=0 <_ZN4core3ptr27drop_in_place$LT$$RF$u8$GT$17hfc8981ef1a07c114E>
 - func[249] sig=0 <_ZN4core3ptr29drop_in_place$LT$$LP$$RP$$GT$17hc8c906ef0ecd9de6E>
 - func[250] sig=0 <_ZN4core3ptr52drop_in_place$LT$core..num..error..ParseIntError$GT$17ha572b28df0d41af6E>
 - func[251] sig=16 <_ZN4core3str6traits110_$LT$impl$u20$core..slice..index..SliceIndex$LT$str$GT$$u20$for$u20$core..ops..range..RangeTo$LT$usize$GT$$GT$5index17h94b22853d1612ea2E>
 - func[252] sig=26 <_ZN4core3str7pattern14TwoWaySearcher4next17hb60c78167d7bc6a3E>
 - func[253] sig=1 <_ZN4core4char7methods22_$LT$impl$u20$char$GT$16escape_debug_ext17hd6fbfdded298ac3fE>
 - func[254] sig=2 <_ZN53_$LT$core..fmt..Error$u20$as$u20$core..fmt..Debug$GT$3fmt17h3c8eb51177be1431E>
 - func[255] sig=2 <_ZN68_$LT$core..num..error..ParseIntError$u20$as$u20$core..fmt..Debug$GT$3fmt17h05b182d52c6aacd7E>
 - func[256] sig=1 <_ZN80_$LT$core..str..pattern..StrSearcher$u20$as$u20$core..str..pattern..Searcher$GT$4next17he1088867e674aaf9E>
 - func[257] sig=1 <_ZN81_$LT$core..str..pattern..CharSearcher$u20$as$u20$core..str..pattern..Searcher$GT$10next_match17hd4cafa9c89d26672E>
 - func[258] sig=2 <_ZN64_$LT$rustc_demangle..v0..Ident$u20$as$u20$core..fmt..Display$GT$3fmt17h24652e4c70655832E>
 - func[259] sig=14 <_ZN14rustc_demangle2v010HexNibbles14try_parse_uint17h1d353e42c139bd88E>
 - func[260] sig=1 <_ZN14rustc_demangle2v06Parser11hex_nibbles17h0f0ac6ead1870fd7E>
 - func[261] sig=1 <_ZN14rustc_demangle2v06Parser10integer_6217h8d06fb089542e429E>
 - func[262] sig=14 <_ZN14rustc_demangle2v06Parser14opt_integer_6217h90d064e505495709E>
 - func[263] sig=1 <_ZN14rustc_demangle2v06Parser5ident17h351120bf79414a58E>
 - func[264] sig=0 <_ZN14rustc_demangle2v07Printer17skipping_printing17h03728fa55d9b4819E>
 - func[265] sig=4 <_ZN14rustc_demangle2v07Printer13print_backref17h60aee7e5c4eab238E>
 - func[266] sig=4 <_ZN14rustc_demangle2v07Printer10print_type17h5e743befe7e4d123E>
 - func[267] sig=2 <_ZN14rustc_demangle2v07Printer13print_backref17hb1a7388a78492a84E>
 - func[268] sig=2 <_ZN14rustc_demangle2v07Printer11print_const17h1c5eb180bcdeacedE>
 - func[269] sig=2 <_ZN14rustc_demangle2v07Printer13print_backref17hf32ede7ec01d937aE>
 - func[270] sig=2 <_ZN14rustc_demangle2v07Printer26print_quoted_escaped_chars17h1ff7b79ab9fe686aE>
 - func[271] sig=27 <_ZN14rustc_demangle2v07Printer25print_lifetime_from_index17h8810c378a8445bb8E>
 - func[272] sig=4 <_ZN14rustc_demangle2v07Printer9in_binder17hcd8eb0007553e771E>
 - func[273] sig=4 <_ZN14rustc_demangle2v07Printer10print_type28_$u7b$$u7b$closure$u7d$$u7d$17h0ca25068b60b2803E>
 - func[274] sig=4 <_ZN14rustc_demangle2v07Printer9in_binder17hf5143a664daabd99E>
 - func[275] sig=4 <_ZN14rustc_demangle2v07Printer15print_dyn_trait17hb68098c1f1275326E>
 - func[276] sig=1 <_ZN14rustc_demangle2v07Printer14print_sep_list17h2b0ca2a3c5b9dea3E>
 - func[277] sig=4 <_ZN14rustc_demangle2v07Printer14print_sep_list17h2b8382ab255e1a75E>
 - func[278] sig=4 <_ZN14rustc_demangle2v07Printer17print_generic_arg17heec9a3b4071eef84E>
 - func[279] sig=4 <_ZN14rustc_demangle2v07Printer14print_sep_list17h7d2074918f3f2f49E>
 - func[280] sig=1 <_ZN14rustc_demangle2v07Printer14print_sep_list17h84aaa3586b8c1fecE>
 - func[281] sig=4 <_ZN14rustc_demangle2v07Printer14print_sep_list17hbdf2deeedd0414b4E>
 - func[282] sig=4 <_ZN14rustc_demangle2v07Printer30print_path_maybe_open_generics17h19447d3acb1368d8E>
 - func[283] sig=4 <_ZN14rustc_demangle2v07Printer23print_const_str_literal17h31e1e29ae28ed7a3E>
 - func[284] sig=2 <_ZN14rustc_demangle2v07Printer16print_const_uint17h50f66ad390d98f5fE>
 - func[285] sig=14 <_ZN14rustc_demangle8demangle17hf0be5a10d5bce69fE>
 - func[286] sig=14 <_ZN14rustc_demangle12try_demangle17hf3b7dbdc66a96f6aE>
 - func[287] sig=3 <_ZN83_$LT$rustc_demangle..SizeLimitedFmtAdapter$LT$F$GT$$u20$as$u20$core..fmt..Write$GT$9write_str17hd709db41e5a9bc5dE>
 - func[288] sig=2 <_ZN63_$LT$rustc_demangle..Demangle$u20$as$u20$core..fmt..Display$GT$3fmt17hcdf6de356ba597feE>
 - func[289] sig=2 <_ZN71_$LT$rustc_demangle..SizeLimitExhausted$u20$as$u20$core..fmt..Debug$GT$3fmt17h45eb7a12e2646ed1E>
 - func[290] sig=2 <_ZN4core3fmt5Write9write_fmt17h98da3c7a6c0e4b88E>
 - func[291] sig=0 <_ZN4core3ptr37drop_in_place$LT$core..fmt..Error$GT$17hb86a4f024a02e7cdE>
 - func[292] sig=0 <_ZN4core3ptr42drop_in_place$LT$alloc..string..String$GT$17hde6f6913cec078eeE>
 - func[293] sig=2 <_ZN53_$LT$core..fmt..Error$u20$as$u20$core..fmt..Debug$GT$3fmt17h3c8eb51177be1431E>
 - func[294] sig=28 <_ZN5alloc7raw_vec17capacity_overflow17ha85462faabb43c69E>
 - func[295] sig=14 <_ZN5alloc7raw_vec19RawVec$LT$T$C$A$GT$7reserve21do_reserve_and_handle17h68bee04e0e455105E>
 - func[296] sig=1 <_ZN5alloc7raw_vec12handle_error17h6991f391977ec209E>
 - func[297] sig=17 <_ZN5alloc7raw_vec11finish_grow17h9d985971ceab9880E>
 - func[298] sig=0 <_ZN5alloc7raw_vec19RawVec$LT$T$C$A$GT$8grow_one17h92fd50a6e0ef6b8fE>
 - func[299] sig=1 <_ZN5alloc5alloc18handle_alloc_error17h246ea5f196567ce5E>
 - func[300] sig=1 <_ZN5alloc3fmt6format12format_inner17hdab397b1dc5a3b03E>
 - func[301] sig=1 <_ZN5alloc6string6String4push17h382987dcdc2f3ea1E>
 - func[302] sig=3 <_ZN58_$LT$alloc..string..String$u20$as$u20$core..fmt..Write$GT$9write_str17h932675f2c687b13fE>
 - func[303] sig=2 <_ZN58_$LT$alloc..string..String$u20$as$u20$core..fmt..Write$GT$10write_char17h36d97d1c4726ee61E>
 - func[304] sig=0 <_ZN4core3ptr25drop_in_place$LT$char$GT$17hfb2245d869b41a19E>
 - func[305] sig=0 <_ZN4core3ptr37drop_in_place$LT$core..fmt..Error$GT$17h1c3f1cbd1368fccaE>
 - func[306] sig=1 <_ZN4core9panicking9panic_fmt17h5c7ce52813e94bcdE>
 - func[307] sig=14 <_ZN4core5slice5index26slice_start_index_len_fail17hdf8c0aea852237a1E>
 - func[308] sig=14 <_ZN4core9panicking18panic_bounds_check17h24953fa031ee3e13E>
 - func[309] sig=14 <_ZN4core5slice5index24slice_end_index_len_fail17hf69e11a376ccfddbE>
 - func[310] sig=3 <_ZN4core3fmt9Formatter3pad17hbad76490c47154d2E>
 - func[311] sig=14 <_ZN4core9panicking5panic17h3b99507adb69386aE>
 - func[312] sig=14 <_ZN4core9panicking13assert_failed17h6a90bb8f78ebb29bE>
 - func[313] sig=2 <_ZN4core3num7flt2dec8strategy6dragon9mul_pow1017hf2b36942205b7ee0E>
 - func[314] sig=3 <_ZN4core3num6bignum8Big32x4010mul_digits17h975a7a69ffdc8c3fE>
 - func[315] sig=17 <_ZN4core3num7flt2dec8strategy6dragon15format_shortest17h488109e3398ee326E>
 - func[316] sig=2 <_ZN4core3num6bignum8Big32x408mul_pow217h1540d9e6747bb030E>
 - func[317] sig=16 <_ZN4core3num7flt2dec8strategy6dragon12format_exact17h8270a2f8cd57f21aE>
 - func[318] sig=17 <_ZN4core3num7flt2dec8strategy5grisu19format_shortest_opt17h2ccc4dfd6ad4e028E>
 - func[319] sig=0 <_ZN4core9panicking11panic_const23panic_const_div_by_zero17h22ae5ed81ae7585cE>
 - func[320] sig=16 <_ZN4core3num7flt2dec8strategy5grisu16format_exact_opt17h72bd3644793cda4dE>
 - func[321] sig=29 <_ZN4core3num7flt2dec8strategy5grisu16format_exact_opt14possibly_round17hdda27a3cbfa9b528E>
 - func[322] sig=26 <_ZN4core3num7flt2dec17digits_to_dec_str17h9e6775b00d84c909E>
 - func[323] sig=1 <_ZN4core3num23from_str_radix_panic_rt17h717678f0852fe055E>
 - func[324] sig=2 <_ZN4core3fmt3num3imp52_$LT$impl$u20$core..fmt..Display$u20$for$u20$u32$GT$3fmt17h85fc646d908d0c7bE>
 - func[325] sig=1 <_ZN4core3num21from_str_radix_assert17h5e09c51bfb2726aaE>
 - func[326] sig=2 <_ZN4core3fmt3num50_$LT$impl$u20$core..fmt..Debug$u20$for$u20$u32$GT$3fmt17h6dbb21529d389504E>
 - func[327] sig=3 <_ZN4core3fmt5write17hbee61cd3fb7b52a3E>
 - func[328] sig=2 <_ZN71_$LT$core..ops..range..Range$LT$Idx$GT$$u20$as$u20$core..fmt..Debug$GT$3fmt17ha51f9fe0f83a6904E>
 - func[329] sig=1 <_ZN36_$LT$T$u20$as$u20$core..any..Any$GT$7type_id17h4e5a4609280a40f1E>
 - func[330] sig=14 <_ZN4core5slice5index22slice_index_order_fail17h290993cce6d00be4E>
 - func[331] sig=14 <_ZN4core4char7methods22_$LT$impl$u20$char$GT$16escape_debug_ext17hd6fbfdded298ac3fE>
 - func[332] sig=4 <_ZN4core7unicode12unicode_data15grapheme_extend11lookup_slow17hae75143cd20a0835E>
 - func[333] sig=4 <_ZN4core7unicode9printable12is_printable17h230dbbf0f4101f74E>
 - func[334] sig=1 <_ZN4core4char13EscapeUnicode3new17hd360c35b4fd50ce7E>
 - func[335] sig=1 <_ZN4core4char11EscapeDebug9backslash17h6d5e6d562b4c3bd4E>
 - func[336] sig=0 <_ZN4core4char11EscapeDebug5clear17hd489a949d23fee6fE>
 - func[337] sig=14 <_ZN4core3str8converts9from_utf817h827a506db57c9fc0E>
 - func[338] sig=30 <_ZN4core3fmt8builders11DebugStruct5field17h04cadba0a8386f18E>
 - func[339] sig=2 <_ZN4core3fmt3num3imp51_$LT$impl$u20$core..fmt..Display$u20$for$u20$u8$GT$3fmt17h773d29d0e82b9bd0E>
 - func[340] sig=16 <_ZN4core6result13unwrap_failed17h4ed86702351a3017E>
 - func[341] sig=0 <_ZN4core6option13unwrap_failed17h0d060778de0f79e8E>
 - func[342] sig=14 <_ZN4core6option13expect_failed17h637b3c5bf9792ea8E>
 - func[343] sig=1 <_ZN4core9panicking13panic_display17hbd841ae85eb3dff4E>
 - func[344] sig=2 <_ZN44_$LT$$RF$T$u20$as$u20$core..fmt..Display$GT$3fmt17h87ef43d072a4bed1E>
 - func[345] sig=26 <_ZN4core9panicking19assert_failed_inner17h95edf372af7e7269E>
 - func[346] sig=2 <_ZN42_$LT$$RF$T$u20$as$u20$core..fmt..Debug$GT$3fmt17h7a9a11a22d9e302cE>
 - func[347] sig=2 <_ZN59_$LT$core..fmt..Arguments$u20$as$u20$core..fmt..Display$GT$3fmt17h9e328ff30fa0b781E>
 - func[348] sig=3 <_ZN68_$LT$core..fmt..builders..PadAdapter$u20$as$u20$core..fmt..Write$GT$9write_str17he0e73688d1af7a7cE>
 - func[349] sig=2 <_ZN68_$LT$core..fmt..builders..PadAdapter$u20$as$u20$core..fmt..Write$GT$10write_char17h030517870a05e9b3E>
 - func[350] sig=3 <_ZN4core3fmt8builders10DebugTuple5field17he64b93765707a70bE>
 - func[351] sig=3 <_ZN4core3fmt8builders8DebugSet5entry17hc4ef89b349185074E>
 - func[352] sig=4 <_ZN4core3fmt8builders9DebugList6finish17h6437239b8af24389E>
 - func[353] sig=31 <_ZN4core3fmt5float29float_to_decimal_common_exact17h6ee626c85f2e9517E>
 - func[354] sig=2 <_ZN4core3fmt9Formatter19pad_formatted_parts17hdcadc704d1995422E>
 - func[355] sig=31 <_ZN4core3fmt5float32float_to_decimal_common_shortest17h47190af7019d0f5aE>
 - func[356] sig=32 <_ZN4core3fmt9Formatter12pad_integral17hcbbcc5e70706fcddE>
 - func[357] sig=2 <_ZN4core3fmt5Write9write_fmt17hf49084f2671582bdE>
 - func[358] sig=2 <_ZN4core3str5count14do_count_chars17h66d99444d2bc554aE>
 - func[359] sig=30 <_ZN4core3fmt9Formatter12pad_integral12write_prefix17h45be8b7045bf0ef1E>
 - func[360] sig=3 <_ZN4core3fmt9Formatter21write_formatted_parts17hb91ef84bd177ab23E>
 - func[361] sig=3 <_ZN4core3fmt9Formatter9write_str17hb14ec2e1267025f3E>
 - func[362] sig=25 <_ZN4core3fmt9Formatter26debug_struct_field1_finish17h21965aa73a49103aE>
 - func[363] sig=30 <_ZN4core3fmt9Formatter25debug_tuple_field1_finish17h32ff83f3e7ecdfa2E>
 - func[364] sig=1 <_ZN4core3fmt9Formatter10debug_list17h020b602aa898bb4dE>
 - func[365] sig=2 <_ZN57_$LT$core..fmt..Formatter$u20$as$u20$core..fmt..Write$GT$10write_char17h915b0b91af6931d7E>
 - func[366] sig=2 <_ZN43_$LT$bool$u20$as$u20$core..fmt..Display$GT$3fmt17hfcbfdd782373a372E>
 - func[367] sig=3 <_ZN40_$LT$str$u20$as$u20$core..fmt..Debug$GT$3fmt17hd1ff027f6ce692dbE>
 - func[368] sig=16 <_ZN4core3str16slice_error_fail17hf299654af5b25f82E>
 - func[369] sig=3 <_ZN42_$LT$str$u20$as$u20$core..fmt..Display$GT$3fmt17h3b4f01a80b9664d6E>
 - func[370] sig=2 <_ZN41_$LT$char$u20$as$u20$core..fmt..Debug$GT$3fmt17h5885283e9b0736c5E>
 - func[371] sig=2 <_ZN43_$LT$char$u20$as$u20$core..fmt..Display$GT$3fmt17ha450893e06223bafE>
 - func[372] sig=2 <_ZN4core3fmt17pointer_fmt_inner17h405872dcf4dda6d2E>
 - func[373] sig=17 <_ZN4core5slice6memchr14memchr_aligned17h2cc3a36050ee0a77E>
 - func[374] sig=14 <_ZN4core5slice5index29slice_start_index_len_fail_rt17h457337ef10e44172E>
 - func[375] sig=14 <_ZN4core5slice5index27slice_end_index_len_fail_rt17hc159f02ee83c16faE>
 - func[376] sig=14 <_ZN4core5slice5index25slice_index_order_fail_rt17h1310500fac7dbf76E>
 - func[377] sig=0 <_ZN4core5slice5index31slice_start_index_overflow_fail17h35d67a6cfc2e35acE>
 - func[378] sig=0 <_ZN4core5slice5index29slice_end_index_overflow_fail17h292136872ad585b7E>
 - func[379] sig=2 <_ZN4core3str5count23char_count_general_case17h1f58ff1f44535028E>
 - func[380] sig=0 <_ZN4core3str6traits23str_index_overflow_fail17h11774b6a99626920E>
 - func[381] sig=16 <_ZN4core3str7pattern11StrSearcher3new17ha5dc9f6b7aeb2b13E>
 - func[382] sig=1 <_ZN87_$LT$core..str..lossy..Utf8Chunks$u20$as$u20$core..iter..traits..iterator..Iterator$GT$4next17hd54b7ec5c418cfe8E>
 - func[383] sig=2 <_ZN4core3fmt3num52_$LT$impl$u20$core..fmt..UpperHex$u20$for$u20$i8$GT$3fmt17h4f54dcf9028c66e2E>
 - func[384] sig=16 <_ZN4core3str19slice_error_fail_rt17h7d3e01e1a2d58e61E>
 - func[385] sig=2 <_ZN4core3fmt3num3imp52_$LT$impl$u20$core..fmt..Display$u20$for$u20$u64$GT$3fmt17hf705bcfd867ab9d4E>
 - func[386] sig=25 <_ZN4core7unicode9printable5check17h84062b75a9e2eb0dE>
 - func[387] sig=2 <_ZN4core3fmt3num52_$LT$impl$u20$core..fmt..LowerHex$u20$for$u20$i8$GT$3fmt17haea60f5418a9440dE>
 - func[388] sig=17 <_ZN4core3num21_$LT$impl$u20$u32$GT$14from_str_radix17hc78d5cd26a631d4aE>
 - func[389] sig=14 <_ZN4core3num62_$LT$impl$u20$core..str..traits..FromStr$u20$for$u20$usize$GT$8from_str17hdb55e2acdb5087b9E>
 - func[390] sig=33 <_ZN4core3fmt3num3imp7fmt_u6417haef35ab823acabf1E>
 - func[391] sig=34 <_ZN4core3fmt3num50_$LT$impl$u20$core..fmt..Debug$u20$for$u20$u64$GT$3fmt17ha586b6f7ee3eb42dE>
 - func[392] sig=2 <_ZN4core3fmt5float52_$LT$impl$u20$core..fmt..Display$u20$for$u20$f64$GT$3fmt17h49fda314c7f3aaebE>
 - func[393] sig=2 <_ZN4core3fmt3num53_$LT$impl$u20$core..fmt..LowerHex$u20$for$u20$i64$GT$3fmt17h2bcbc8f239071b78E>
 - func[394] sig=2 <_ZN4core3fmt3num3imp52_$LT$impl$u20$core..fmt..Display$u20$for$u20$i32$GT$3fmt17h200b2960d383772bE>
 - func[395] sig=2 <_ZN4core3fmt3num3imp52_$LT$impl$u20$core..fmt..Display$u20$for$u20$i64$GT$3fmt17he62212bbe9521a6bE>
 - func[396] sig=2 <_ZN42_$LT$$RF$T$u20$as$u20$core..fmt..Debug$GT$3fmt17hf029691c75fe4424E>
 - func[397] sig=4 <_ZN4core7unicode12unicode_data2cc6lookup17hedeb1e51069009a4E>
 - func[398] sig=35 <__lshrti3>
 - func[399] sig=36 <__multi3>
 - func[400] sig=3 <_ZN17compiler_builtins3mem6memcpy17he2d289fa2eb42ef2E>
 - func[401] sig=3 <_ZN17compiler_builtins3mem7memmove17h269e2e7a3fe7eb2aE>
 - func[402] sig=3 <_ZN17compiler_builtins3mem6memset17h7cd7cef2899efd6aE>
 - func[403] sig=3 <_ZN17compiler_builtins3mem6memcmp17h95f992c5648d6561E>
 - func[404] sig=3 <memcpy>
 - func[405] sig=3 <memmove>
 - func[406] sig=3 <memcmp>
 - func[407] sig=3 <memset>
Table[1]:
 - table[0] type=funcref initial=153 max=153
Memory[1]:
 - memory[0] pages: initial=17
Global[3]:
 - global[0] i32 mutable=1 <__stack_pointer> - init i32=1048576
 - global[1] i32 mutable=0 <__data_end> - init i32=1079505
 - global[2] i32 mutable=0 <__heap_base> - init i32=1079520
Export[6]:
 - memory[0] -> "memory"
 - func[34] <add_numbers> -> "add_numbers"
 - func[35] <add_from_host> -> "add_from_host"
 - func[36] <add_from_host_one> -> "add_from_host_one"
 - global[1] -> "__data_end"
 - global[2] -> "__heap_base"
Elem[1]:
 - segment[0] flags=0 table=0 count=152 - init i32=1
  - elem[1] = ref.func:25 <_ZN4core3ptr121drop_in_place$LT$add_fun.._..$LT$impl$u20$serde..de..Deserialize$u20$for$u20$add_fun..Add$GT$..deserialize..__Visitor$GT$17hf41c0892b9a8bff1E>
  - elem[2] = ref.func:39 <_ZN41_$LT$T$u20$as$u20$serde..de..Expected$GT$3fmt17h7c2816790a92d911E>
  - elem[3] = ref.func:30 <_ZN41_$LT$T$u20$as$u20$serde..de..Expected$GT$3fmt17hdf321f444d25fe5bE>
  - elem[4] = ref.func:26 <_ZN4core3ptr28drop_in_place$LT$$RF$str$GT$17h99337e9f61fc53fcE>
  - elem[5] = ref.func:150 <_ZN47_$LT$$RF$str$u20$as$u20$serde..de..Expected$GT$3fmt17hed40e77e00242c06E>
  - elem[6] = ref.func:168 <_ZN6anyhow5error60_$LT$impl$u20$core..fmt..Debug$u20$for$u20$anyhow..Error$GT$3fmt17h34e413ab5fa0fb0dE>
  - elem[7] = ref.func:40 <_ZN44_$LT$$RF$T$u20$as$u20$core..fmt..Display$GT$3fmt17h4840a2618ce82bb0E.llvm.1030253459691590260>
  - elem[8] = ref.func:41 <_ZN44_$LT$$RF$T$u20$as$u20$core..fmt..Display$GT$3fmt17h887f94fb1c732fccE.llvm.1030253459691590260>
  - elem[9] = ref.func:324 <_ZN4core3fmt3num3imp52_$LT$impl$u20$core..fmt..Display$u20$for$u20$u32$GT$3fmt17h85fc646d908d0c7bE>
  - elem[10] = ref.func:42 <_ZN4core3ptr125drop_in_place$LT$serde..de..impls..$LT$impl$u20$serde..de..Deserialize$u20$for$u20$i64$GT$..deserialize..PrimitiveVisitor$GT$17h1d4dd0f673c74d37E.llvm.1030253459691590260>
  - elem[11] = ref.func:44 <_ZN4core3ptr45drop_in_place$LT$serde_json..error..Error$GT$17he7d2ed851b3cc741E>
  - elem[12] = ref.func:116 <_ZN63_$LT$serde_json..error..Error$u20$as$u20$core..fmt..Display$GT$3fmt17h1b459c2ba7910cb9E>
  - elem[13] = ref.func:117 <_ZN61_$LT$serde_json..error..Error$u20$as$u20$core..fmt..Debug$GT$3fmt17h9733e9e837a6f09cE>
  - elem[14] = ref.func:115 <_ZN63_$LT$serde_json..error..Error$u20$as$u20$core..error..Error$GT$6source17hcc0d52be7f9b60acE>
  - elem[15] = ref.func:53 <_ZN4core5error5Error7type_id17hf88902d01fdf2e53E>
  - elem[16] = ref.func:46 <_ZN4core5error5Error11description17h3ca588bd2d716a9dE>
  - elem[17] = ref.func:48 <_ZN4core5error5Error5cause17hd618e1ab6ba4b6a0E>
  - elem[18] = ref.func:51 <_ZN4core5error5Error7provide17he0a268d008a46b96E>
  - elem[19] = ref.func:45 <_ZN4core3ptr77drop_in_place$LT$anyhow..error..ErrorImpl$LT$serde_json..error..Error$GT$$GT$17ha2fd0efada665a32E>
  - elem[20] = ref.func:66 <_ZN72_$LT$anyhow..error..ErrorImpl$LT$E$GT$$u20$as$u20$core..fmt..Display$GT$3fmt17h63073cbee44b65bfE>
  - elem[21] = ref.func:65 <_ZN70_$LT$anyhow..error..ErrorImpl$LT$E$GT$$u20$as$u20$core..fmt..Debug$GT$3fmt17he54555aa103b6fb4E>
  - elem[22] = ref.func:49 <_ZN4core5error5Error5cause17he38d6c5fd2e44891E>
  - elem[23] = ref.func:52 <_ZN4core5error5Error7type_id17h4e1e53b0645b2488E>
  - elem[24] = ref.func:47 <_ZN4core5error5Error11description17hb3e9e15a3bad5164E>
  - elem[25] = ref.func:50 <_ZN4core5error5Error7provide17h3630148d45b65b18E>
  - elem[26] = ref.func:59 <_ZN6anyhow5error11object_drop17h9a4e890726284daaE.llvm.1030253459691590260>
  - elem[27] = ref.func:58 <_ZN6anyhow5error10object_ref17h3412bb7c79886825E.llvm.1030253459691590260>
  - elem[28] = ref.func:61 <_ZN6anyhow5error12object_boxed17ha10aa366287b6905E.llvm.1030253459691590260>
  - elem[29] = ref.func:62 <_ZN6anyhow5error15object_downcast17h3ad0c9b25bd0617cE.llvm.1030253459691590260>
  - elem[30] = ref.func:63 <_ZN6anyhow5error17object_drop_front17h9519113aa6260882E.llvm.1030253459691590260>
  - elem[31] = ref.func:60 <_ZN6anyhow5error12no_backtrace17h206db79473c73424E.llvm.1030253459691590260>
  - elem[32] = ref.func:92 <_ZN4core3ptr26drop_in_place$LT$usize$GT$17h4c3498389769757dE>
  - elem[33] = ref.func:90 <_ZN42_$LT$$RF$T$u20$as$u20$core..fmt..Debug$GT$3fmt17hda5785033ed89042E>
  - elem[34] = ref.func:93 <_ZN4core3ptr51drop_in_place$LT$core..array..TryFromSliceError$GT$17h55fc80aeeff3bbb3E>
  - elem[35] = ref.func:101 <_ZN69_$LT$core..array..TryFromSliceError$u20$as$u20$core..fmt..Display$GT$3fmt17h5ca8ce988735b0b4E>
  - elem[36] = ref.func:99 <_ZN67_$LT$core..array..TryFromSliceError$u20$as$u20$core..fmt..Debug$GT$3fmt17hcdd719dc4652ca5cE>
  - elem[37] = ref.func:96 <_ZN4core5error5Error6source17h5dbf9712ae5399c4E>
  - elem[38] = ref.func:81 <_ZN4core5error5Error7type_id17h6a702e869c2087adE>
  - elem[39] = ref.func:100 <_ZN69_$LT$core..array..TryFromSliceError$u20$as$u20$core..error..Error$GT$11description17h38c5950d33bdf280E>
  - elem[40] = ref.func:79 <_ZN4core5error5Error5cause17h87d8369588d91b22E>
  - elem[41] = ref.func:98 <_ZN4core5error5Error7provide17hf6db82cffa13758bE>
  - elem[42] = ref.func:94 <_ZN4core3ptr83drop_in_place$LT$anyhow..error..ErrorImpl$LT$core..array..TryFromSliceError$GT$$GT$17h6d3eb4f9567e7aacE>
  - elem[43] = ref.func:87 <_ZN72_$LT$anyhow..error..ErrorImpl$LT$E$GT$$u20$as$u20$core..fmt..Display$GT$3fmt17h40a3ff9f8833d946E>
  - elem[44] = ref.func:86 <_ZN70_$LT$anyhow..error..ErrorImpl$LT$E$GT$$u20$as$u20$core..fmt..Debug$GT$3fmt17h3b3048ce8e223e16E>
  - elem[45] = ref.func:80 <_ZN4core5error5Error5cause17h926d72a6b09dcf5dE>
  - elem[46] = ref.func:82 <_ZN4core5error5Error7type_id17hd50155af1f1daa25E>
  - elem[47] = ref.func:95 <_ZN4core5error5Error11description17h0050efb3d3ef41a0E>
  - elem[48] = ref.func:97 <_ZN4core5error5Error7provide17h0d4ad23138c12afaE>
  - elem[49] = ref.func:83 <_ZN6anyhow5error11object_drop17h596446c9fbb46b7aE>
  - elem[50] = ref.func:102 <_ZN6anyhow5error10object_ref17h1beb0fdaaeb9f3a1E.llvm.16892013313707293455>
  - elem[51] = ref.func:104 <_ZN6anyhow5error12object_boxed17h92089598b541dd51E.llvm.16892013313707293455>
  - elem[52] = ref.func:84 <_ZN6anyhow5error15object_downcast17h67f6e8b675ecb626E>
  - elem[53] = ref.func:85 <_ZN6anyhow5error17object_drop_front17h08cc4b0bc29dca60E>
  - elem[54] = ref.func:103 <_ZN6anyhow5error12no_backtrace17h206db79473c73424E.llvm.16892013313707293455>
  - elem[55] = ref.func:114 <_ZN67_$LT$serde_json..error..ErrorCode$u20$as$u20$core..fmt..Display$GT$3fmt17ha93854dbd261b59bE>
  - elem[56] = ref.func:110 <_ZN58_$LT$alloc..string..String$u20$as$u20$core..fmt..Debug$GT$3fmt17h9355f792e978a73cE>
  - elem[57] = ref.func:129 <_ZN44_$LT$$RF$T$u20$as$u20$core..fmt..Display$GT$3fmt17hf784e3036af55c4bE>
  - elem[58] = ref.func:121 <_ZN72_$LT$serde_json..error..JsonUnexpected$u20$as$u20$core..fmt..Display$GT$3fmt17h403ffbd3ecd31e43E>
  - elem[59] = ref.func:124 <_ZN44_$LT$$RF$T$u20$as$u20$core..fmt..Display$GT$3fmt17hbf4f337fb1fa1523E>
  - elem[60] = ref.func:108 <_ZN4core3ptr42drop_in_place$LT$alloc..string..String$GT$17h612bec53deefb341E>
  - elem[61] = ref.func:112 <_ZN58_$LT$alloc..string..String$u20$as$u20$core..fmt..Write$GT$9write_str17h932675f2c687b13fE>
  - elem[62] = ref.func:111 <_ZN58_$LT$alloc..string..String$u20$as$u20$core..fmt..Write$GT$10write_char17h36d97d1c4726ee61E>
  - elem[63] = ref.func:125 <_ZN4core3fmt5Write9write_fmt17h767ead49ef32e465E>
  - elem[64] = ref.func:107 <_ZN4core3ptr37drop_in_place$LT$core..fmt..Error$GT$17hd0430d4327e7f8e4E>
  - elem[65] = ref.func:109 <_ZN53_$LT$core..fmt..Error$u20$as$u20$core..fmt..Debug$GT$3fmt17h3c8eb51177be1431E>
  - elem[66] = ref.func:126 <_ZN4core3ptr205drop_in_place$LT$$LT$alloc..boxed..Box$LT$dyn$u20$core..error..Error$u2b$core..marker..Send$u2b$core..marker..Sync$GT$$u20$as$u20$core..convert..From$LT$alloc..string..String$GT$$GT$..from..StringError$GT$17he06e1efc5146ab5eE>
  - elem[67] = ref.func:128 <_ZN58_$LT$alloc..string..String$u20$as$u20$core..fmt..Write$GT$9write_str17h932675f2c687b13fE>
  - elem[68] = ref.func:127 <_ZN58_$LT$alloc..string..String$u20$as$u20$core..fmt..Write$GT$10write_char17h36d97d1c4726ee61E>
  - elem[69] = ref.func:366 <_ZN43_$LT$bool$u20$as$u20$core..fmt..Display$GT$3fmt17hfcbfdd782373a372E>
  - elem[70] = ref.func:385 <_ZN4core3fmt3num3imp52_$LT$impl$u20$core..fmt..Display$u20$for$u20$u64$GT$3fmt17hf705bcfd867ab9d4E>
  - elem[71] = ref.func:395 <_ZN4core3fmt3num3imp52_$LT$impl$u20$core..fmt..Display$u20$for$u20$i64$GT$3fmt17he62212bbe9521a6bE>
  - elem[72] = ref.func:149 <_ZN66_$LT$serde..de..WithDecimalPoint$u20$as$u20$core..fmt..Display$GT$3fmt17h72518f5eb8fb0904E>
  - elem[73] = ref.func:371 <_ZN43_$LT$char$u20$as$u20$core..fmt..Display$GT$3fmt17ha450893e06223bafE>
  - elem[74] = ref.func:154 <_ZN42_$LT$$RF$T$u20$as$u20$core..fmt..Debug$GT$3fmt17hc9f1d85dc7c7bc5eE>
  - elem[75] = ref.func:392 <_ZN4core3fmt5float52_$LT$impl$u20$core..fmt..Display$u20$for$u20$f64$GT$3fmt17h49fda314c7f3aaebE>
  - elem[76] = ref.func:147 <_ZN4core3ptr112drop_in_place$LT$$LT$serde..de..WithDecimalPoint$u20$as$u20$core..fmt..Display$GT$..fmt..LookForDecimalPoint$GT$17haf6d6767153ec90bE>
  - elem[77] = ref.func:152 <_ZN128_$LT$$LT$serde..de..WithDecimalPoint$u20$as$u20$core..fmt..Display$GT$..fmt..LookForDecimalPoint$u20$as$u20$core..fmt..Write$GT$9write_str17hf4dcb8f52a4157b1E>
  - elem[78] = ref.func:153 <_ZN128_$LT$$LT$serde..de..WithDecimalPoint$u20$as$u20$core..fmt..Display$GT$..fmt..LookForDecimalPoint$u20$as$u20$core..fmt..Write$GT$10write_char17h53a872306cf84f59E>
  - elem[79] = ref.func:146 <_ZN4core3fmt5Write9write_fmt17h68bf47748adb2a6bE>
  - elem[80] = ref.func:158 <_ZN4core3ptr42drop_in_place$LT$alloc..string..String$GT$17h5e8acb5585233a79E>
  - elem[81] = ref.func:163 <_ZN58_$LT$alloc..string..String$u20$as$u20$core..fmt..Write$GT$9write_str17h932675f2c687b13fE>
  - elem[82] = ref.func:160 <_ZN58_$LT$alloc..string..String$u20$as$u20$core..fmt..Write$GT$10write_char17h36d97d1c4726ee61E>
  - elem[83] = ref.func:157 <_ZN4core3fmt5Write9write_fmt17ha4d742e1f6e39a2fE>
  - elem[84] = ref.func:156 <_ZN44_$LT$$RF$T$u20$as$u20$core..fmt..Display$GT$3fmt17h2deedc2bd2a7c30fE>
  - elem[85] = ref.func:177 <_ZN60_$LT$alloc..string..String$u20$as$u20$core..fmt..Display$GT$3fmt17hdc6c0eb27a5fac8aE>
  - elem[86] = ref.func:172 <_ZN4core3ptr42drop_in_place$LT$alloc..string..String$GT$17h5e8acb5585233a79E>
  - elem[87] = ref.func:176 <_ZN58_$LT$alloc..string..String$u20$as$u20$core..fmt..Write$GT$9write_str17h932675f2c687b13fE>
  - elem[88] = ref.func:175 <_ZN58_$LT$alloc..string..String$u20$as$u20$core..fmt..Write$GT$10write_char17h36d97d1c4726ee61E>
  - elem[89] = ref.func:171 <_ZN4core3ptr37drop_in_place$LT$core..fmt..Error$GT$17hf2e74aad5d2bd585E>
  - elem[90] = ref.func:174 <_ZN53_$LT$core..fmt..Error$u20$as$u20$core..fmt..Debug$GT$3fmt17h3c8eb51177be1431E>
  - elem[91] = ref.func:173 <_ZN4core3ptr70drop_in_place$LT$anyhow..fmt..Indented$LT$core..fmt..Formatter$GT$$GT$17he9055561e2657f12E>
  - elem[92] = ref.func:181 <_ZN67_$LT$anyhow..fmt..Indented$LT$T$GT$$u20$as$u20$core..fmt..Write$GT$9write_str17h31bcf0f81168935aE>
  - elem[93] = ref.func:180 <_ZN4core3fmt5Write10write_char17h59db31d6096be93aE>
  - elem[94] = ref.func:182 <_ZN4core3fmt5Write9write_fmt17h4394b82d097e79c4E>
  - elem[95] = ref.func:183 <_ZN4core3ptr40drop_in_place$LT$anyhow..ensure..Buf$GT$17hcb1643bbd4c9f17cE>
  - elem[96] = ref.func:199 <_ZN50_$LT$$BP$mut$u20$T$u20$as$u20$core..fmt..Debug$GT$3fmt17hb396f8762c49fd69E>
  - elem[97] = ref.func:189 <_ZN44_$LT$$RF$T$u20$as$u20$core..fmt..Display$GT$3fmt17h6b46d3751c4e6376E>
  - elem[98] = ref.func:212 <_ZN79_$LT$std..backtrace_rs..symbolize..SymbolName$u20$as$u20$core..fmt..Display$GT$3fmt17h17dfd954c032b1d6E>
  - elem[99] = ref.func:394 <_ZN4core3fmt3num3imp52_$LT$impl$u20$core..fmt..Display$u20$for$u20$i32$GT$3fmt17h200b2960d383772bE>
  - elem[100] = ref.func:204 <_ZN60_$LT$alloc..string..String$u20$as$u20$core..fmt..Display$GT$3fmt17hdc6c0eb27a5fac8aE>
  - elem[101] = ref.func:221 <_ZN3std5alloc24default_alloc_error_hook17h9d6d7bb51d97ec4fE>
  - elem[102] = ref.func:194 <_ZN4core3ptr122drop_in_place$LT$$RF$alloc..boxed..Box$LT$dyn$u20$core..error..Error$u2b$core..marker..Send$u2b$core..marker..Sync$GT$$GT$17hafb4b80ed40fbfe0E>
  - elem[103] = ref.func:187 <_ZN42_$LT$$RF$T$u20$as$u20$core..fmt..Debug$GT$3fmt17h14763f8aa15690f8E>
  - elem[104] = ref.func:196 <_ZN4core3ptr42drop_in_place$LT$alloc..string..String$GT$17he0b9c7b9b779f017E>
  - elem[105] = ref.func:202 <_ZN58_$LT$alloc..string..String$u20$as$u20$core..fmt..Write$GT$9write_str17h932675f2c687b13fE>
  - elem[106] = ref.func:200 <_ZN58_$LT$alloc..string..String$u20$as$u20$core..fmt..Write$GT$10write_char17h36d97d1c4726ee61E>
  - elem[107] = ref.func:191 <_ZN4core3fmt5Write9write_fmt17h5450563fbb96cb70E>
  - elem[108] = ref.func:193 <_ZN4core3ptr118drop_in_place$LT$$LT$std..backtrace..Backtrace$u20$as$u20$core..fmt..Display$GT$..fmt..$u7b$$u7b$closure$u7d$$u7d$$GT$17hf5aae282f3e5791cE>
  - elem[109] = ref.func:192 <_ZN4core3ops8function6FnOnce40call_once$u7b$$u7b$vtable.shim$u7d$$u7d$17h200285c5e14f2ffcE>
  - elem[110] = ref.func:216 <_ZN64_$LT$std..backtrace..Backtrace$u20$as$u20$core..fmt..Display$GT$3fmt28_$u7b$$u7b$closure$u7d$$u7d$17h1414633b5015c602E>
  - elem[111] = ref.func:184 <_ZN36_$LT$T$u20$as$u20$core..any..Any$GT$7type_id17h88d3cb239ded0a8bE>
  - elem[112] = ref.func:186 <_ZN36_$LT$T$u20$as$u20$core..any..Any$GT$7type_id17heb1b6f3656f479feE>
  - elem[113] = ref.func:229 <_ZN99_$LT$std..panicking..begin_panic_handler..StaticStrPayload$u20$as$u20$core..panic..PanicPayload$GT$8take_box17h00db27ffc0f86bc9E>
  - elem[114] = ref.func:230 <_ZN99_$LT$std..panicking..begin_panic_handler..StaticStrPayload$u20$as$u20$core..panic..PanicPayload$GT$3get17h25e87be0acf0cba3E>
  - elem[115] = ref.func:197 <_ZN4core3ptr77drop_in_place$LT$std..panicking..begin_panic_handler..FormatStringPayload$GT$17h0cdb96bb4afb8b69E>
  - elem[116] = ref.func:227 <_ZN102_$LT$std..panicking..begin_panic_handler..FormatStringPayload$u20$as$u20$core..panic..PanicPayload$GT$8take_box17he725486881b42bbeE>
  - elem[117] = ref.func:228 <_ZN102_$LT$std..panicking..begin_panic_handler..FormatStringPayload$u20$as$u20$core..panic..PanicPayload$GT$3get17ha699b76f30386534E>
  - elem[118] = ref.func:195 <_ZN4core3ptr29drop_in_place$LT$$LP$$RP$$GT$17hf58ee1d6076085b1E>
  - elem[119] = ref.func:185 <_ZN36_$LT$T$u20$as$u20$core..any..Any$GT$7type_id17h9571516faba776b2E>
  - elem[120] = ref.func:238 <_ZN42_$LT$$RF$T$u20$as$u20$core..fmt..Debug$GT$3fmt17h007b92949007655cE>
  - elem[121] = ref.func:239 <_ZN50_$LT$$RF$mut$u20$T$u20$as$u20$core..fmt..Debug$GT$3fmt17h2e9209fe216a99cdE>
  - elem[122] = ref.func:242 <_ZN44_$LT$$RF$T$u20$as$u20$core..fmt..Display$GT$3fmt17he408656639b09253E>
  - elem[123] = ref.func:248 <_ZN4core3ptr27drop_in_place$LT$$RF$u8$GT$17hfc8981ef1a07c114E>
  - elem[124] = ref.func:241 <_ZN42_$LT$$RF$T$u20$as$u20$core..fmt..Debug$GT$3fmt17hf7b687bde8294458E>
  - elem[125] = ref.func:249 <_ZN4core3ptr29drop_in_place$LT$$LP$$RP$$GT$17hc8c906ef0ecd9de6E>
  - elem[126] = ref.func:245 <_ZN45_$LT$$LP$$RP$$u20$as$u20$core..fmt..Debug$GT$3fmt17h675d5aaad6bc9529E>
  - elem[127] = ref.func:240 <_ZN42_$LT$$RF$T$u20$as$u20$core..fmt..Debug$GT$3fmt17h004e705c49e70e5dE>
  - elem[128] = ref.func:287 <_ZN83_$LT$rustc_demangle..SizeLimitedFmtAdapter$LT$F$GT$$u20$as$u20$core..fmt..Write$GT$9write_str17hd709db41e5a9bc5dE>
  - elem[129] = ref.func:246 <_ZN4core3fmt5Write10write_char17h9ae3120669e0ceb2E>
  - elem[130] = ref.func:247 <_ZN4core3fmt5Write9write_fmt17h3b40b0bb0d363359E>
  - elem[131] = ref.func:250 <_ZN4core3ptr52drop_in_place$LT$core..num..error..ParseIntError$GT$17ha572b28df0d41af6E>
  - elem[132] = ref.func:255 <_ZN68_$LT$core..num..error..ParseIntError$u20$as$u20$core..fmt..Debug$GT$3fmt17h05b182d52c6aacd7E>
  - elem[133] = ref.func:254 <_ZN53_$LT$core..fmt..Error$u20$as$u20$core..fmt..Debug$GT$3fmt17h3c8eb51177be1431E>
  - elem[134] = ref.func:289 <_ZN71_$LT$rustc_demangle..SizeLimitExhausted$u20$as$u20$core..fmt..Debug$GT$3fmt17h45eb7a12e2646ed1E>
  - elem[135] = ref.func:292 <_ZN4core3ptr42drop_in_place$LT$alloc..string..String$GT$17hde6f6913cec078eeE>
  - elem[136] = ref.func:302 <_ZN58_$LT$alloc..string..String$u20$as$u20$core..fmt..Write$GT$9write_str17h932675f2c687b13fE>
  - elem[137] = ref.func:303 <_ZN58_$LT$alloc..string..String$u20$as$u20$core..fmt..Write$GT$10write_char17h36d97d1c4726ee61E>
  - elem[138] = ref.func:290 <_ZN4core3fmt5Write9write_fmt17h98da3c7a6c0e4b88E>
  - elem[139] = ref.func:291 <_ZN4core3ptr37drop_in_place$LT$core..fmt..Error$GT$17hb86a4f024a02e7cdE>
  - elem[140] = ref.func:293 <_ZN53_$LT$core..fmt..Error$u20$as$u20$core..fmt..Debug$GT$3fmt17h3c8eb51177be1431E>
  - elem[141] = ref.func:346 <_ZN42_$LT$$RF$T$u20$as$u20$core..fmt..Debug$GT$3fmt17h7a9a11a22d9e302cE>
  - elem[142] = ref.func:344 <_ZN44_$LT$$RF$T$u20$as$u20$core..fmt..Display$GT$3fmt17h87ef43d072a4bed1E>
  - elem[143] = ref.func:347 <_ZN59_$LT$core..fmt..Arguments$u20$as$u20$core..fmt..Display$GT$3fmt17h9e328ff30fa0b781E>
  - elem[144] = ref.func:328 <_ZN71_$LT$core..ops..range..Range$LT$Idx$GT$$u20$as$u20$core..fmt..Debug$GT$3fmt17ha51f9fe0f83a6904E>
  - elem[145] = ref.func:370 <_ZN41_$LT$char$u20$as$u20$core..fmt..Debug$GT$3fmt17h5885283e9b0736c5E>
  - elem[146] = ref.func:305 <_ZN4core3ptr37drop_in_place$LT$core..fmt..Error$GT$17h1c3f1cbd1368fccaE>
  - elem[147] = ref.func:329 <_ZN36_$LT$T$u20$as$u20$core..any..Any$GT$7type_id17h4e5a4609280a40f1E>
  - elem[148] = ref.func:304 <_ZN4core3ptr25drop_in_place$LT$char$GT$17hfb2245d869b41a19E>
  - elem[149] = ref.func:396 <_ZN42_$LT$$RF$T$u20$as$u20$core..fmt..Debug$GT$3fmt17hf029691c75fe4424E>
  - elem[150] = ref.func:348 <_ZN68_$LT$core..fmt..builders..PadAdapter$u20$as$u20$core..fmt..Write$GT$9write_str17he0e73688d1af7a7cE>
  - elem[151] = ref.func:349 <_ZN68_$LT$core..fmt..builders..PadAdapter$u20$as$u20$core..fmt..Write$GT$10write_char17h030517870a05e9b3E>
  - elem[152] = ref.func:357 <_ZN4core3fmt5Write9write_fmt17hf49084f2671582bdE>
Code[396]:
 - func[12] size=388 <_ZN10serde_json2de10from_trait17he37474ae39607711E>
 - func[13] size=4649 <_ZN93_$LT$$RF$mut$u20$serde_json..de..Deserializer$LT$R$GT$$u20$as$u20$serde..de..Deserializer$GT$18deserialize_struct17h061df9ffad7fd2f2E>
 - func[14] size=457 <_ZN10serde_json2de21Deserializer$LT$R$GT$13parse_decimal17h7f7f453510a89aedE>
 - func[15] size=327 <_ZN10serde_json2de21Deserializer$LT$R$GT$14f64_from_parts17h23966bdea0412336E>
 - func[16] size=505 <_ZN10serde_json2de21Deserializer$LT$R$GT$14parse_exponent17h3257780bd2edfaf8E>
 - func[17] size=127 <_ZN10serde_json2de21Deserializer$LT$R$GT$22parse_decimal_overflow17hd41b63fdcc40ae07E>
 - func[18] size=933 <_ZN10serde_json2de21Deserializer$LT$R$GT$13parse_integer17h7a8dc8b2f824fb6aE>
 - func[19] size=189 <_ZN10serde_json2de21Deserializer$LT$R$GT$18parse_long_integer17heac5bfa854cd86dcE>
 - func[20] size=523 <_ZN10serde_json2de21Deserializer$LT$R$GT$14ignore_integer17hde5676bb58955f50E>
 - func[21] size=256 <_ZN10serde_json2de21Deserializer$LT$R$GT$15ignore_exponent17hf808878500314bb7E>
 - func[22] size=214 <_ZN10serde_json2de21Deserializer$LT$R$GT$23parse_exponent_overflow17h10d21cdb973b9b9fE>
 - func[23] size=1349 <_ZN10serde_json2de21Deserializer$LT$R$GT$17peek_invalid_type17hf8dc169e2b34095bE>
 - func[24] size=270 <_ZN10serde_json2de21Deserializer$LT$R$GT$18parse_object_colon17h36b2a624c71f5e2bE>
 - func[25] size=2 <_ZN4core3ptr121drop_in_place$LT$add_fun.._..$LT$impl$u20$serde..de..Deserialize$u20$for$u20$add_fun..Add$GT$..deserialize..__Visitor$GT$17hf41c0892b9a8bff1E>
 - func[26] size=2 <_ZN4core3ptr28drop_in_place$LT$$RF$str$GT$17h99337e9f61fc53fcE>
 - func[27] size=144 <_ZN4core3ptr45drop_in_place$LT$serde_json..error..Error$GT$17he7d2ed851b3cc741E>
 - func[28] size=582 <_ZN5serde2de9SeqAccess12next_element17h0851859645e5b261E>
 - func[29] size=689 <_ZN81_$LT$core..marker..PhantomData$LT$T$GT$$u20$as$u20$serde..de..DeserializeSeed$GT$11deserialize17hb11e1e6a3f07f85aE>
 - func[30] size=18 <_ZN41_$LT$T$u20$as$u20$serde..de..Expected$GT$3fmt17hdf321f444d25fe5bE>
 - func[31] size=213 <_ZN5alloc7raw_vec11finish_grow17h75cc3e7ed1341fb1E.llvm.15086629167384057212>
 - func[32] size=211 <_ZN5alloc7raw_vec19RawVec$LT$T$C$A$GT$7reserve21do_reserve_and_handle17hdb640f8871406cd4E>
 - func[33] size=257 <_ZN7add_fun13sum_from_host17h0b999b4812455f6fE>
 - func[34] size=426 <add_numbers>
 - func[35] size=619 <add_from_host>
 - func[36] size=568 <add_from_host_one>
 - func[37] size=60 <_ZN6anyhow5error72_$LT$impl$u20$core..convert..From$LT$E$GT$$u20$for$u20$anyhow..Error$GT$4from17ha55a4bec4535e006E.llvm.1030253459691590260>
 - func[38] size=134 <_ZN10serde_json5error5Error12fix_position17h41bf85bf98eeb908E>
 - func[39] size=12 <_ZN41_$LT$T$u20$as$u20$serde..de..Expected$GT$3fmt17h7c2816790a92d911E>
 - func[40] size=20 <_ZN44_$LT$$RF$T$u20$as$u20$core..fmt..Display$GT$3fmt17h4840a2618ce82bb0E.llvm.1030253459691590260>
 - func[41] size=20 <_ZN44_$LT$$RF$T$u20$as$u20$core..fmt..Display$GT$3fmt17h887f94fb1c732fccE.llvm.1030253459691590260>
 - func[42] size=2 <_ZN4core3ptr125drop_in_place$LT$serde..de..impls..$LT$impl$u20$serde..de..Deserialize$u20$for$u20$i64$GT$..deserialize..PrimitiveVisitor$GT$17h1d4dd0f673c74d37E.llvm.1030253459691590260>
 - func[43] size=287 <_ZN4core3ptr44drop_in_place$LT$std..backtrace..Capture$GT$17h562e73347f08b63eE>
 - func[44] size=149 <_ZN4core3ptr45drop_in_place$LT$serde_json..error..Error$GT$17he7d2ed851b3cc741E>
 - func[45] size=151 <_ZN4core3ptr77drop_in_place$LT$anyhow..error..ErrorImpl$LT$serde_json..error..Error$GT$$GT$17ha2fd0efada665a32E>
 - func[46] size=20 <_ZN4core5error5Error11description17h3ca588bd2d716a9dE>
 - func[47] size=20 <_ZN4core5error5Error11description17hb3e9e15a3bad5164E>
 - func[48] size=69 <_ZN4core5error5Error5cause17hd618e1ab6ba4b6a0E>
 - func[49] size=91 <_ZN4core5error5Error5cause17he38d6c5fd2e44891E>
 - func[50] size=2 <_ZN4core5error5Error7provide17h3630148d45b65b18E>
 - func[51] size=2 <_ZN4core5error5Error7provide17he0a268d008a46b96E>
 - func[52] size=33 <_ZN4core5error5Error7type_id17h4e1e53b0645b2488E>
 - func[53] size=34 <_ZN4core5error5Error7type_id17hf88902d01fdf2e53E>
 - func[54] size=118 <_ZN5serde2de5Error13missing_field17hd337412a4f29609bE>
 - func[55] size=244 <_ZN61_$LT$serde_json..error..Error$u20$as$u20$serde..de..Error$GT$6custom17ha4a4c5e65fcd8692E.llvm.1030253459691590260>
 - func[56] size=149 <_ZN5serde2de5Error14invalid_length17h4cefe02499f63b06E>
 - func[57] size=118 <_ZN5serde2de5Error15duplicate_field17hec805cedadcac46dE>
 - func[58] size=23 <_ZN6anyhow5error10object_ref17h3412bb7c79886825E.llvm.1030253459691590260>
 - func[59] size=163 <_ZN6anyhow5error11object_drop17h9a4e890726284daaE.llvm.1030253459691590260>
 - func[60] size=4 <_ZN6anyhow5error12no_backtrace17h206db79473c73424E.llvm.1030253459691590260>
 - func[61] size=20 <_ZN6anyhow5error12object_boxed17ha10aa366287b6905E.llvm.1030253459691590260>
 - func[62] size=41 <_ZN6anyhow5error15object_downcast17h3ad0c9b25bd0617cE.llvm.1030253459691590260>
 - func[63] size=152 <_ZN6anyhow5error17object_drop_front17h9519113aa6260882E.llvm.1030253459691590260>
 - func[64] size=104 <_ZN6anyhow5error31_$LT$impl$u20$anyhow..Error$GT$9construct17hd6320c48bb5c5d54E.llvm.1030253459691590260>
 - func[65] size=12 <_ZN70_$LT$anyhow..error..ErrorImpl$LT$E$GT$$u20$as$u20$core..fmt..Debug$GT$3fmt17he54555aa103b6fb4E>
 - func[66] size=71 <_ZN72_$LT$anyhow..error..ErrorImpl$LT$E$GT$$u20$as$u20$core..fmt..Display$GT$3fmt17h63073cbee44b65bfE>
 - func[67] size=19 <__rust_alloc>
 - func[68] size=15 <__rust_dealloc>
 - func[69] size=23 <__rust_realloc>
 - func[70] size=19 <__rust_alloc_zeroed>
 - func[71] size=13 <__rust_alloc_error_handler>
 - func[72] size=248 <_ZN10extism_pdk6extism10load_input17h98cd9449a00920b1E>
 - func[73] size=148 <_ZN10extism_pdk6extism5store17h59119f8725bda41aE>
 - func[74] size=256 <_ZN10extism_pdk6memory6Memory6to_vec17hf550a4b4cc312058E>
 - func[75] size=12 <_ZN10extism_pdk6memory6Memory10set_output17hb3cf4ce71e4496d3E>
 - func[76] size=32 <_ZN77_$LT$extism_pdk..memory..Memory$u20$as$u20$core..convert..From$LT$i64$GT$$GT$4from17h0d848ab997a057edE>
 - func[77] size=10 <_ZN10extism_pdk11input_bytes17hb6bc04dcc6ab3e6bE>
 - func[78] size=209 <_ZN4core3ptr74drop_in_place$LT$core..option..Option$LT$std..backtrace..Backtrace$GT$$GT$17haddb812335865001E>
 - func[79] size=9 <_ZN4core5error5Error5cause17h87d8369588d91b22E>
 - func[80] size=91 <_ZN4core5error5Error5cause17h926d72a6b09dcf5dE>
 - func[81] size=32 <_ZN4core5error5Error7type_id17h6a702e869c2087adE>
 - func[82] size=32 <_ZN4core5error5Error7type_id17hd50155af1f1daa25E>
 - func[83] size=25 <_ZN6anyhow5error11object_drop17h596446c9fbb46b7aE>
 - func[84] size=39 <_ZN6anyhow5error15object_downcast17h67f6e8b675ecb626E>
 - func[85] size=25 <_ZN6anyhow5error17object_drop_front17h08cc4b0bc29dca60E>
 - func[86] size=12 <_ZN70_$LT$anyhow..error..ErrorImpl$LT$E$GT$$u20$as$u20$core..fmt..Debug$GT$3fmt17h3b3048ce8e223e16E>
 - func[87] size=71 <_ZN72_$LT$anyhow..error..ErrorImpl$LT$E$GT$$u20$as$u20$core..fmt..Display$GT$3fmt17h40a3ff9f8833d946E>
 - func[88] size=183 <_ZN85_$LT$std..sync..lazy_lock..LazyLock$LT$T$C$F$GT$$u20$as$u20$core..ops..drop..Drop$GT$4drop17h71860678c6f78d4cE>
 - func[89] size=48 <_ZN66_$LT$i64$u20$as$u20$extism_convert..from_bytes..FromBytesOwned$GT$16from_bytes_owned17h917c176987d4362bE>
 - func[90] size=18 <_ZN42_$LT$$RF$T$u20$as$u20$core..fmt..Debug$GT$3fmt17hda5785033ed89042E>
 - func[91] size=259 <_ZN70_$LT$alloc..vec..Vec$LT$T$C$A$GT$$u20$as$u20$core..ops..drop..Drop$GT$4drop17h272d8e0049369eebE>
 - func[92] size=2 <_ZN4core3ptr26drop_in_place$LT$usize$GT$17h4c3498389769757dE>
 - func[93] size=2 <_ZN4core3ptr51drop_in_place$LT$core..array..TryFromSliceError$GT$17h55fc80aeeff3bbb3E>
 - func[94] size=40 <_ZN4core3ptr83drop_in_place$LT$anyhow..error..ErrorImpl$LT$core..array..TryFromSliceError$GT$$GT$17h6d3eb4f9567e7aacE>
 - func[95] size=20 <_ZN4core5error5Error11description17h0050efb3d3ef41a0E>
 - func[96] size=9 <_ZN4core5error5Error6source17h5dbf9712ae5399c4E>
 - func[97] size=2 <_ZN4core5error5Error7provide17h0d4ad23138c12afaE>
 - func[98] size=2 <_ZN4core5error5Error7provide17hf6db82cffa13758bE>
 - func[99] size=70 <_ZN67_$LT$core..array..TryFromSliceError$u20$as$u20$core..fmt..Debug$GT$3fmt17hcdd719dc4652ca5cE>
 - func[100] size=20 <_ZN69_$LT$core..array..TryFromSliceError$u20$as$u20$core..error..Error$GT$11description17h38c5950d33bdf280E>
 - func[101] size=18 <_ZN69_$LT$core..array..TryFromSliceError$u20$as$u20$core..fmt..Display$GT$3fmt17h5ca8ce988735b0b4E>
 - func[102] size=23 <_ZN6anyhow5error10object_ref17h1beb0fdaaeb9f3a1E.llvm.16892013313707293455>
 - func[103] size=4 <_ZN6anyhow5error12no_backtrace17h206db79473c73424E.llvm.16892013313707293455>
 - func[104] size=20 <_ZN6anyhow5error12object_boxed17h92089598b541dd51E.llvm.16892013313707293455>
 - func[105] size=97 <_ZN6anyhow5error31_$LT$impl$u20$anyhow..Error$GT$9construct17h49687edb59a7f298E.llvm.16892013313707293455>
 - func[106] size=58 <_ZN6anyhow5error72_$LT$impl$u20$core..convert..From$LT$E$GT$$u20$for$u20$anyhow..Error$GT$4from17hec36e3561a7bf9b7E>
 - func[107] size=2 <_ZN4core3ptr37drop_in_place$LT$core..fmt..Error$GT$17hd0430d4327e7f8e4E>
 - func[108] size=32 <_ZN4core3ptr42drop_in_place$LT$alloc..string..String$GT$17h612bec53deefb341E>
 - func[109] size=18 <_ZN53_$LT$core..fmt..Error$u20$as$u20$core..fmt..Debug$GT$3fmt17h3c8eb51177be1431E>
 - func[110] size=20 <_ZN58_$LT$alloc..string..String$u20$as$u20$core..fmt..Debug$GT$3fmt17h9355f792e978a73cE>
 - func[111] size=348 <_ZN58_$LT$alloc..string..String$u20$as$u20$core..fmt..Write$GT$10write_char17h36d97d1c4726ee61E>
 - func[112] size=75 <_ZN58_$LT$alloc..string..String$u20$as$u20$core..fmt..Write$GT$9write_str17h932675f2c687b13fE>
 - func[113] size=84 <_ZN10serde_json5error5Error6syntax17hcf2464e96d648698E>
 - func[114] size=533 <_ZN67_$LT$serde_json..error..ErrorCode$u20$as$u20$core..fmt..Display$GT$3fmt17ha93854dbd261b59bE>
 - func[115] size=103 <_ZN63_$LT$serde_json..error..Error$u20$as$u20$core..error..Error$GT$6source17hcc0d52be7f9b60acE>
 - func[116] size=180 <_ZN63_$LT$serde_json..error..Error$u20$as$u20$core..fmt..Display$GT$3fmt17h1b459c2ba7910cb9E>
 - func[117] size=348 <_ZN61_$LT$serde_json..error..Error$u20$as$u20$core..fmt..Debug$GT$3fmt17h9733e9e837a6f09cE>
 - func[118] size=244 <_ZN61_$LT$serde_json..error..Error$u20$as$u20$serde..de..Error$GT$6custom17h1bdc2d3c05d55965E.llvm.9665005564904636706>
 - func[119] size=1869 <_ZN10serde_json5error10make_error17h299d5646e1f5c61dE>
 - func[120] size=168 <_ZN61_$LT$serde_json..error..Error$u20$as$u20$serde..de..Error$GT$12invalid_type17hdf145dd51d6fac63E>
 - func[121] size=351 <_ZN72_$LT$serde_json..error..JsonUnexpected$u20$as$u20$core..fmt..Display$GT$3fmt17h403ffbd3ecd31e43E>
 - func[122] size=168 <_ZN61_$LT$serde_json..error..Error$u20$as$u20$serde..de..Error$GT$13invalid_value17hfde32ae7200bef05E>
 - func[123] size=142 <_ZN10serde_json2de12ParserNumber12invalid_type17hffeb46f7dffa2338E>
 - func[124] size=20 <_ZN44_$LT$$RF$T$u20$as$u20$core..fmt..Display$GT$3fmt17hbf4f337fb1fa1523E>
 - func[125] size=18 <_ZN4core3fmt5Write9write_fmt17h767ead49ef32e465E>
 - func[126] size=32 <_ZN4core3ptr205drop_in_place$LT$$LT$alloc..boxed..Box$LT$dyn$u20$core..error..Error$u2b$core..marker..Send$u2b$core..marker..Sync$GT$$u20$as$u20$core..convert..From$LT$alloc..string..String$GT$$GT$..from..StringError$GT$17he06e1efc5146ab5eE>
 - func[127] size=348 <_ZN58_$LT$alloc..string..String$u20$as$u20$core..fmt..Write$GT$10write_char17h36d97d1c4726ee61E>
 - func[128] size=75 <_ZN58_$LT$alloc..string..String$u20$as$u20$core..fmt..Write$GT$9write_str17h932675f2c687b13fE>
 - func[129] size=20 <_ZN44_$LT$$RF$T$u20$as$u20$core..fmt..Display$GT$3fmt17hf784e3036af55c4bE>
 - func[130] size=204 <_ZN5alloc7raw_vec11finish_grow17hbced5976ffca8891E.llvm.17818969842598828770>
 - func[131] size=211 <_ZN5alloc7raw_vec19RawVec$LT$T$C$A$GT$7reserve21do_reserve_and_handle17hf18501f43739fdf7E>
 - func[132] size=208 <_ZN5alloc7raw_vec19RawVec$LT$T$C$A$GT$8grow_one17hf424a92d3d7ffef1E>
 - func[133] size=220 <_ZN4core4char7methods15encode_utf8_raw17h8d8d7604367ece7dE>
 - func[134] size=279 <_ZN70_$LT$serde_json..read..SliceRead$u20$as$u20$serde_json..read..Read$GT$8position17h6ad6e16fd2b975ebE>
 - func[135] size=264 <_ZN70_$LT$serde_json..read..SliceRead$u20$as$u20$serde_json..read..Read$GT$13peek_position17h4b945887c7394f47E>
 - func[136] size=1639 <_ZN70_$LT$serde_json..read..SliceRead$u20$as$u20$serde_json..read..Read$GT$9parse_str17h792329b82661d75cE>
 - func[137] size=1733 <_ZN10serde_json4read12parse_escape17h085e7dfd8e5babfdE>
 - func[138] size=1309 <_ZN70_$LT$serde_json..read..SliceRead$u20$as$u20$serde_json..read..Read$GT$10ignore_str17h04eaeaf9df5b67e9E>
 - func[139] size=865 <_ZN70_$LT$serde_json..read..SliceRead$u20$as$u20$serde_json..read..Read$GT$17decode_hex_escape17h5b130f80ad3f4319E>
 - func[140] size=365 <_ZN10serde_json4read11peek_or_eof17h64a7395a2cde1b5bE>
 - func[141] size=280 <_ZN10serde_json4read5error17h8cf867fa88878ebfE>
 - func[142] size=112 <_ZN10serde_json4read12parse_escape16encode_surrogate17hec7670e6d9382bc1E>
 - func[143] size=73 <_ZN5alloc3vec16Vec$LT$T$C$A$GT$17extend_from_slice17h99ea9ac32712529eE>
 - func[144] size=474 <_ZN3ryu6pretty8mantissa19write_mantissa_long17h5b4dd8bea4637dcdE>
 - func[145] size=2772 <_ZN3ryu6pretty8format6417ha05332ef29b82f13E>
 - func[146] size=18 <_ZN4core3fmt5Write9write_fmt17h68bf47748adb2a6bE>
 - func[147] size=2 <_ZN4core3ptr112drop_in_place$LT$$LT$serde..de..WithDecimalPoint$u20$as$u20$core..fmt..Display$GT$..fmt..LookForDecimalPoint$GT$17haf6d6767153ec90bE>
 - func[148] size=915 <_ZN60_$LT$serde..de..Unexpected$u20$as$u20$core..fmt..Display$GT$3fmt17h91eef5a00191b720E>
 - func[149] size=277 <_ZN66_$LT$serde..de..WithDecimalPoint$u20$as$u20$core..fmt..Display$GT$3fmt17h72518f5eb8fb0904E>
 - func[150] size=20 <_ZN47_$LT$$RF$str$u20$as$u20$serde..de..Expected$GT$3fmt17hed40e77e00242c06E>
 - func[151] size=18 <_ZN66_$LT$dyn$u20$serde..de..Expected$u20$as$u20$core..fmt..Display$GT$3fmt17h1397c36fdafa70a5E>
 - func[152] size=246 <_ZN128_$LT$$LT$serde..de..WithDecimalPoint$u20$as$u20$core..fmt..Display$GT$..fmt..LookForDecimalPoint$u20$as$u20$core..fmt..Write$GT$9write_str17hf4dcb8f52a4157b1E>
 - func[153] size=34 <_ZN128_$LT$$LT$serde..de..WithDecimalPoint$u20$as$u20$core..fmt..Display$GT$..fmt..LookForDecimalPoint$u20$as$u20$core..fmt..Write$GT$10write_char17h53a872306cf84f59E>
 - func[154] size=20 <_ZN42_$LT$$RF$T$u20$as$u20$core..fmt..Debug$GT$3fmt17hc9f1d85dc7c7bc5eE>
 - func[155] size=18 <_ZN143_$LT$serde..de..impls..$LT$impl$u20$serde..de..Deserialize$u20$for$u20$i64$GT$..deserialize..PrimitiveVisitor$u20$as$u20$serde..de..Visitor$GT$9expecting17hbbebc2ebbc6e1671E>
 - func[156] size=24 <_ZN44_$LT$$RF$T$u20$as$u20$core..fmt..Display$GT$3fmt17h2deedc2bd2a7c30fE>
 - func[157] size=18 <_ZN4core3fmt5Write9write_fmt17ha4d742e1f6e39a2fE>
 - func[158] size=32 <_ZN4core3ptr42drop_in_place$LT$alloc..string..String$GT$17h5e8acb5585233a79E>
 - func[159] size=192 <_ZN4core5slice5index5range17h744ad5edcc76a6abE>
 - func[160] size=348 <_ZN58_$LT$alloc..string..String$u20$as$u20$core..fmt..Write$GT$10write_char17h36d97d1c4726ee61E>
 - func[161] size=208 <_ZN5alloc7raw_vec19RawVec$LT$T$C$A$GT$8grow_one17h4aee2dcdd3dfb194E>
 - func[162] size=211 <_ZN5alloc7raw_vec19RawVec$LT$T$C$A$GT$7reserve21do_reserve_and_handle17h0cc3963ef4f47d9fE>
 - func[163] size=75 <_ZN58_$LT$alloc..string..String$u20$as$u20$core..fmt..Write$GT$9write_str17h932675f2c687b13fE>
 - func[164] size=496 <_ZN5alloc6string6String13replace_range17hfd12e869775d44dfE>
 - func[165] size=204 <_ZN5alloc7raw_vec11finish_grow17h166080c0da7b4fc4E.llvm.14897176874709543215>
 - func[166] size=363 <_ZN4core3str21_$LT$impl$u20$str$GT$16trim_end_matches17h9224ac27b10a805eE>
 - func[167] size=1078 <_ZN81_$LT$alloc..vec..splice..Splice$LT$I$C$A$GT$$u20$as$u20$core..ops..drop..Drop$GT$4drop17h385c5ef3887487cfE>
 - func[168] size=15 <_ZN6anyhow5error60_$LT$impl$u20$core..fmt..Debug$u20$for$u20$anyhow..Error$GT$3fmt17h34e413ab5fa0fb0dE>
 - func[169] size=24 <_ZN6anyhow5error65_$LT$impl$u20$core..ops..drop..Drop$u20$for$u20$anyhow..Error$GT$4drop17h79111a42652b3c3dE>
 - func[170] size=14 <_ZN4core3fmt9Formatter9write_fmt17hc71e518628a78d07E>
 - func[171] size=2 <_ZN4core3ptr37drop_in_place$LT$core..fmt..Error$GT$17hf2e74aad5d2bd585E>
 - func[172] size=32 <_ZN4core3ptr42drop_in_place$LT$alloc..string..String$GT$17h5e8acb5585233a79E>
 - func[173] size=2 <_ZN4core3ptr70drop_in_place$LT$anyhow..fmt..Indented$LT$core..fmt..Formatter$GT$$GT$17he9055561e2657f12E>
 - func[174] size=18 <_ZN53_$LT$core..fmt..Error$u20$as$u20$core..fmt..Debug$GT$3fmt17h3c8eb51177be1431E>
 - func[175] size=348 <_ZN58_$LT$alloc..string..String$u20$as$u20$core..fmt..Write$GT$10write_char17h36d97d1c4726ee61E>
 - func[176] size=75 <_ZN58_$LT$alloc..string..String$u20$as$u20$core..fmt..Write$GT$9write_str17h932675f2c687b13fE>
 - func[177] size=20 <_ZN60_$LT$alloc..string..String$u20$as$u20$core..fmt..Display$GT$3fmt17hdc6c0eb27a5fac8aE>
 - func[178] size=78 <_ZN6anyhow5error9ErrorImpl5error17hfdfe4ec665284038E>
 - func[179] size=1197 <_ZN6anyhow3fmt42_$LT$impl$u20$anyhow..error..ErrorImpl$GT$5debug17h1e3fb8bcac56a53aE>
 - func[180] size=262 <_ZN4core3fmt5Write10write_char17h59db31d6096be93aE>
 - func[181] size=659 <_ZN67_$LT$anyhow..fmt..Indented$LT$T$GT$$u20$as$u20$core..fmt..Write$GT$9write_str17h31bcf0f81168935aE>
 - func[182] size=18 <_ZN4core3fmt5Write9write_fmt17h4394b82d097e79c4E>
 - func[183] size=2 <_ZN4core3ptr40drop_in_place$LT$anyhow..ensure..Buf$GT$17hcb1643bbd4c9f17cE>
 - func[184] size=33 <_ZN36_$LT$T$u20$as$u20$core..any..Any$GT$7type_id17h88d3cb239ded0a8bE>
 - func[185] size=34 <_ZN36_$LT$T$u20$as$u20$core..any..Any$GT$7type_id17h9571516faba776b2E>
 - func[186] size=34 <_ZN36_$LT$T$u20$as$u20$core..any..Any$GT$7type_id17heb1b6f3656f479feE>
 - func[187] size=15 <_ZN42_$LT$$RF$T$u20$as$u20$core..fmt..Debug$GT$3fmt17h14763f8aa15690f8E>
 - func[188] size=200 <_ZN69_$LT$std..sys..os_str..bytes..Slice$u20$as$u20$core..fmt..Display$GT$3fmt17h17d63d8a500a28beE>
 - func[189] size=20 <_ZN44_$LT$$RF$T$u20$as$u20$core..fmt..Display$GT$3fmt17h6b46d3751c4e6376E>
 - func[190] size=211 <_ZN5alloc7raw_vec19RawVec$LT$T$C$A$GT$7reserve21do_reserve_and_handle17h95d0e43a1ec4579dE>
 - func[191] size=18 <_ZN4core3fmt5Write9write_fmt17h5450563fbb96cb70E>
 - func[192] size=256 <_ZN4core3ops8function6FnOnce40call_once$u7b$$u7b$vtable.shim$u7d$$u7d$17h200285c5e14f2ffcE>
 - func[193] size=129 <_ZN4core3ptr118drop_in_place$LT$$LT$std..backtrace..Backtrace$u20$as$u20$core..fmt..Display$GT$..fmt..$u7b$$u7b$closure$u7d$$u7d$$GT$17hf5aae282f3e5791cE>
 - func[194] size=2 <_ZN4core3ptr122drop_in_place$LT$$RF$alloc..boxed..Box$LT$dyn$u20$core..error..Error$u2b$core..marker..Send$u2b$core..marker..Sync$GT$$GT$17hafb4b80ed40fbfe0E>
 - func[195] size=2 <_ZN4core3ptr29drop_in_place$LT$$LP$$RP$$GT$17hf58ee1d6076085b1E>
 - func[196] size=32 <_ZN4core3ptr42drop_in_place$LT$alloc..string..String$GT$17he0b9c7b9b779f017E>
 - func[197] size=45 <_ZN4core3ptr77drop_in_place$LT$std..panicking..begin_panic_handler..FormatStringPayload$GT$17h0cdb96bb4afb8b69E>
 - func[198] size=78 <_ZN4core9panicking13assert_failed17h690f3bdf8855e416E>
 - func[199] size=15 <_ZN50_$LT$$BP$mut$u20$T$u20$as$u20$core..fmt..Debug$GT$3fmt17hb396f8762c49fd69E>
 - func[200] size=358 <_ZN58_$LT$alloc..string..String$u20$as$u20$core..fmt..Write$GT$10write_char17h36d97d1c4726ee61E>
 - func[201] size=208 <_ZN5alloc7raw_vec19RawVec$LT$T$C$A$GT$8grow_one17h249dd74981fa9ca3E>
 - func[202] size=75 <_ZN58_$LT$alloc..string..String$u20$as$u20$core..fmt..Write$GT$9write_str17h932675f2c687b13fE>
 - func[203] size=204 <_ZN5alloc7raw_vec11finish_grow17ha0fc23de3e124241E>
 - func[204] size=20 <_ZN60_$LT$alloc..string..String$u20$as$u20$core..fmt..Display$GT$3fmt17hdc6c0eb27a5fac8aE>
 - func[205] size=386 <_ZN8dlmalloc8dlmalloc17Dlmalloc$LT$A$GT$12unlink_chunk17h8d0d81757dd7de5dE>
 - func[206] size=543 <_ZN8dlmalloc8dlmalloc17Dlmalloc$LT$A$GT$13dispose_chunk17hc51238bb547bf9d7E>
 - func[207] size=335 <_ZN8dlmalloc8dlmalloc17Dlmalloc$LT$A$GT$18insert_large_chunk17h67b2ff06c0e8b9e0E>
 - func[208] size=829 <_ZN8dlmalloc8dlmalloc17Dlmalloc$LT$A$GT$4free17h21bf9d7572bd86f3E>
 - func[209] size=4972 <_ZN8dlmalloc8dlmalloc17Dlmalloc$LT$A$GT$6malloc17h0483a0dc0f5e490bE>
 - func[210] size=379 <_ZN8dlmalloc8dlmalloc17Dlmalloc$LT$A$GT$8memalign17hae661cd81f1d1708E>
 - func[211] size=300 <_ZN3std3sys4sync4once10no_threads4Once4call17h61ee0b8e18c5555fE>
 - func[212] size=244 <_ZN79_$LT$std..backtrace_rs..symbolize..SymbolName$u20$as$u20$core..fmt..Display$GT$3fmt17h17dfd954c032b1d6E>
 - func[213] size=187 <_ZN3std9backtrace9Backtrace7capture17hc0c5f1c907448d9dE>
 - func[214] size=1190 <_ZN64_$LT$std..backtrace..Backtrace$u20$as$u20$core..fmt..Display$GT$3fmt17he7e239f78d6c9122E>
 - func[215] size=1772 <_ZN3std12backtrace_rs5print17BacktraceFrameFmt21print_raw_with_column17hf2c29a0ac3db7e64E>
 - func[216] size=130 <_ZN64_$LT$std..backtrace..Backtrace$u20$as$u20$core..fmt..Display$GT$3fmt28_$u7b$$u7b$closure$u7d$$u7d$17h1414633b5015c602E>
 - func[217] size=495 <_ZN60_$LT$std..io..error..Error$u20$as$u20$core..fmt..Display$GT$3fmt17hbda3a27c1eb6710cE>
 - func[218] size=112 <_ZN60_$LT$std..io..error..Error$u20$as$u20$core..error..Error$GT$6source17h798e753712748899E>
 - func[219] size=11 <_ZN3std10sys_common9backtrace26__rust_end_short_backtrace17hbdf3ddeb21a1e747E>
 - func[220] size=206 <_ZN3std9panicking19begin_panic_handler28_$u7b$$u7b$closure$u7d$$u7d$17hb6cd8464ed39ae71E>
 - func[221] size=129 <_ZN3std5alloc24default_alloc_error_hook17h9d6d7bb51d97ec4fE>
 - func[222] size=31 <__rdl_alloc>
 - func[223] size=112 <__rdl_dealloc>
 - func[224] size=942 <__rdl_realloc>
 - func[225] size=76 <__rdl_alloc_zeroed>
 - func[226] size=82 <rust_begin_unwind>
 - func[227] size=285 <_ZN102_$LT$std..panicking..begin_panic_handler..FormatStringPayload$u20$as$u20$core..panic..PanicPayload$GT$8take_box17he725486881b42bbeE>
 - func[228] size=169 <_ZN102_$LT$std..panicking..begin_panic_handler..FormatStringPayload$u20$as$u20$core..panic..PanicPayload$GT$3get17ha699b76f30386534E>
 - func[229] size=88 <_ZN99_$LT$std..panicking..begin_panic_handler..StaticStrPayload$u20$as$u20$core..panic..PanicPayload$GT$8take_box17h00db27ffc0f86bc9E>
 - func[230] size=20 <_ZN99_$LT$std..panicking..begin_panic_handler..StaticStrPayload$u20$as$u20$core..panic..PanicPayload$GT$3get17h25e87be0acf0cba3E>
 - func[231] size=307 <_ZN3std9panicking20rust_panic_with_hook17h6731baa78621a747E>
 - func[232] size=15 <rust_panic>
 - func[233] size=37 <__rg_oom>
 - func[234] size=4 <__rust_start_panic>
 - func[235] size=57 <_ZN61_$LT$dlmalloc..sys..System$u20$as$u20$dlmalloc..Allocator$GT$5alloc17h32bf5aa7613bca1cE>
 - func[236] size=1443 <_ZN104_$LT$core..iter..sources..from_fn..FromFn$LT$F$GT$$u20$as$u20$core..iter..traits..iterator..Iterator$GT$4next17he72b0fec072444acE>
 - func[237] size=38 <_ZN81_$LT$core..str..iter..Chars$u20$as$u20$core..iter..traits..iterator..Iterator$GT$5count17h752ef6142eb5b05fE>
 - func[238] size=20 <_ZN42_$LT$$RF$T$u20$as$u20$core..fmt..Debug$GT$3fmt17h007b92949007655cE>
 - func[239] size=131 <_ZN50_$LT$$RF$mut$u20$T$u20$as$u20$core..fmt..Debug$GT$3fmt17h2e9209fe216a99cdE>
 - func[240] size=45 <_ZN42_$LT$$RF$T$u20$as$u20$core..fmt..Debug$GT$3fmt17h004e705c49e70e5dE>
 - func[241] size=68 <_ZN42_$LT$$RF$T$u20$as$u20$core..fmt..Debug$GT$3fmt17hf7b687bde8294458E>
 - func[242] size=113 <_ZN44_$LT$$RF$T$u20$as$u20$core..fmt..Display$GT$3fmt17he408656639b09253E>
 - func[243] size=2922 <_ZN71_$LT$rustc_demangle..legacy..Demangle$u20$as$u20$core..fmt..Display$GT$3fmt17hea1262fa5364aa2fE>
 - func[244] size=2443 <_ZN14rustc_demangle2v07Printer10print_path17h84e604bcaa186aa9E>
 - func[245] size=18 <_ZN45_$LT$$LP$$RP$$u20$as$u20$core..fmt..Debug$GT$3fmt17h675d5aaad6bc9529E>
 - func[246] size=312 <_ZN4core3fmt5Write10write_char17h9ae3120669e0ceb2E>
 - func[247] size=18 <_ZN4core3fmt5Write9write_fmt17h3b40b0bb0d363359E>
 - func[248] size=2 <_ZN4core3ptr27drop_in_place$LT$$RF$u8$GT$17hfc8981ef1a07c114E>
 - func[249] size=2 <_ZN4core3ptr29drop_in_place$LT$$LP$$RP$$GT$17hc8c906ef0ecd9de6E>
 - func[250] size=2 <_ZN4core3ptr52drop_in_place$LT$core..num..error..ParseIntError$GT$17ha572b28df0d41af6E>
 - func[251] size=77 <_ZN4core3str6traits110_$LT$impl$u20$core..slice..index..SliceIndex$LT$str$GT$$u20$for$u20$core..ops..range..RangeTo$LT$usize$GT$$GT$5index17h94b22853d1612ea2E>
 - func[252] size=484 <_ZN4core3str7pattern14TwoWaySearcher4next17hb60c78167d7bc6a3E>
 - func[253] size=229 <_ZN4core4char7methods22_$LT$impl$u20$char$GT$16escape_debug_ext17hd6fbfdded298ac3fE>
 - func[254] size=18 <_ZN53_$LT$core..fmt..Error$u20$as$u20$core..fmt..Debug$GT$3fmt17h3c8eb51177be1431E>
 - func[255] size=78 <_ZN68_$LT$core..num..error..ParseIntError$u20$as$u20$core..fmt..Debug$GT$3fmt17h05b182d52c6aacd7E>
 - func[256] size=1081 <_ZN80_$LT$core..str..pattern..StrSearcher$u20$as$u20$core..str..pattern..Searcher$GT$4next17he1088867e674aaf9E>
 - func[257] size=565 <_ZN81_$LT$core..str..pattern..CharSearcher$u20$as$u20$core..str..pattern..Searcher$GT$10next_match17hd4cafa9c89d26672E>
 - func[258] size=1433 <_ZN64_$LT$rustc_demangle..v0..Ident$u20$as$u20$core..fmt..Display$GT$3fmt17h24652e4c70655832E>
 - func[259] size=441 <_ZN14rustc_demangle2v010HexNibbles14try_parse_uint17h1d353e42c139bd88E>
 - func[260] size=269 <_ZN14rustc_demangle2v06Parser11hex_nibbles17h0f0ac6ead1870fd7E>
 - func[261] size=392 <_ZN14rustc_demangle2v06Parser10integer_6217h8d06fb089542e429E>
 - func[262] size=431 <_ZN14rustc_demangle2v06Parser14opt_integer_6217h90d064e505495709E>
 - func[263] size=777 <_ZN14rustc_demangle2v06Parser5ident17h351120bf79414a58E>
 - func[264] size=101 <_ZN14rustc_demangle2v07Printer17skipping_printing17h03728fa55d9b4819E>
 - func[265] size=593 <_ZN14rustc_demangle2v07Printer13print_backref17h60aee7e5c4eab238E>
 - func[266] size=1546 <_ZN14rustc_demangle2v07Printer10print_type17h5e743befe7e4d123E>
 - func[267] size=602 <_ZN14rustc_demangle2v07Printer13print_backref17hb1a7388a78492a84E>
 - func[268] size=2130 <_ZN14rustc_demangle2v07Printer11print_const17h1c5eb180bcdeacedE>
 - func[269] size=602 <_ZN14rustc_demangle2v07Printer13print_backref17hf32ede7ec01d937aE>
 - func[270] size=312 <_ZN14rustc_demangle2v07Printer26print_quoted_escaped_chars17h1ff7b79ab9fe686aE>
 - func[271] size=250 <_ZN14rustc_demangle2v07Printer25print_lifetime_from_index17h8810c378a8445bb8E>
 - func[272] size=722 <_ZN14rustc_demangle2v07Printer9in_binder17hcd8eb0007553e771E>
 - func[273] size=1442 <_ZN14rustc_demangle2v07Printer10print_type28_$u7b$$u7b$closure$u7d$$u7d$17h0ca25068b60b2803E>
 - func[274] size=990 <_ZN14rustc_demangle2v07Printer9in_binder17hf5143a664daabd99E>
 - func[275] size=730 <_ZN14rustc_demangle2v07Printer15print_dyn_trait17hb68098c1f1275326E>
 - func[276] size=172 <_ZN14rustc_demangle2v07Printer14print_sep_list17h2b0ca2a3c5b9dea3E>
 - func[277] size=144 <_ZN14rustc_demangle2v07Printer14print_sep_list17h2b8382ab255e1a75E>
 - func[278] size=478 <_ZN14rustc_demangle2v07Printer17print_generic_arg17heec9a3b4071eef84E>
 - func[279] size=149 <_ZN14rustc_demangle2v07Printer14print_sep_list17h7d2074918f3f2f49E>
 - func[280] size=176 <_ZN14rustc_demangle2v07Printer14print_sep_list17h84aaa3586b8c1fecE>
 - func[281] size=794 <_ZN14rustc_demangle2v07Printer14print_sep_list17hbdf2deeedd0414b4E>
 - func[282] size=833 <_ZN14rustc_demangle2v07Printer30print_path_maybe_open_generics17h19447d3acb1368d8E>
 - func[283] size=861 <_ZN14rustc_demangle2v07Printer23print_const_str_literal17h31e1e29ae28ed7a3E>
 - func[284] size=605 <_ZN14rustc_demangle2v07Printer16print_const_uint17h50f66ad390d98f5fE>
 - func[285] size=2840 <_ZN14rustc_demangle8demangle17hf0be5a10d5bce69fE>
 - func[286] size=125 <_ZN14rustc_demangle12try_demangle17hf3b7dbdc66a96f6aE>
 - func[287] size=70 <_ZN83_$LT$rustc_demangle..SizeLimitedFmtAdapter$LT$F$GT$$u20$as$u20$core..fmt..Write$GT$9write_str17hd709db41e5a9bc5dE>
 - func[288] size=451 <_ZN63_$LT$rustc_demangle..Demangle$u20$as$u20$core..fmt..Display$GT$3fmt17hcdf6de356ba597feE>
 - func[289] size=18 <_ZN71_$LT$rustc_demangle..SizeLimitExhausted$u20$as$u20$core..fmt..Debug$GT$3fmt17h45eb7a12e2646ed1E>
 - func[290] size=18 <_ZN4core3fmt5Write9write_fmt17h98da3c7a6c0e4b88E>
 - func[291] size=2 <_ZN4core3ptr37drop_in_place$LT$core..fmt..Error$GT$17hb86a4f024a02e7cdE>
 - func[292] size=32 <_ZN4core3ptr42drop_in_place$LT$alloc..string..String$GT$17hde6f6913cec078eeE>
 - func[293] size=18 <_ZN53_$LT$core..fmt..Error$u20$as$u20$core..fmt..Debug$GT$3fmt17h3c8eb51177be1431E>
 - func[294] size=71 <_ZN5alloc7raw_vec17capacity_overflow17ha85462faabb43c69E>
 - func[295] size=211 <_ZN5alloc7raw_vec19RawVec$LT$T$C$A$GT$7reserve21do_reserve_and_handle17h68bee04e0e455105E>
 - func[296] size=27 <_ZN5alloc7raw_vec12handle_error17h6991f391977ec209E>
 - func[297] size=213 <_ZN5alloc7raw_vec11finish_grow17h9d985971ceab9880E>
 - func[298] size=208 <_ZN5alloc7raw_vec19RawVec$LT$T$C$A$GT$8grow_one17h92fd50a6e0ef6b8fE>
 - func[299] size=13 <_ZN5alloc5alloc18handle_alloc_error17h246ea5f196567ce5E>
 - func[300] size=427 <_ZN5alloc3fmt6format12format_inner17hdab397b1dc5a3b03E>
 - func[301] size=356 <_ZN5alloc6string6String4push17h382987dcdc2f3ea1E>
 - func[302] size=75 <_ZN58_$LT$alloc..string..String$u20$as$u20$core..fmt..Write$GT$9write_str17h932675f2c687b13fE>
 - func[303] size=14 <_ZN58_$LT$alloc..string..String$u20$as$u20$core..fmt..Write$GT$10write_char17h36d97d1c4726ee61E>
 - func[304] size=2 <_ZN4core3ptr25drop_in_place$LT$char$GT$17hfb2245d869b41a19E>
 - func[305] size=2 <_ZN4core3ptr37drop_in_place$LT$core..fmt..Error$GT$17h1c3f1cbd1368fccaE>
 - func[306] size=72 <_ZN4core9panicking9panic_fmt17h5c7ce52813e94bcdE>
 - func[307] size=15 <_ZN4core5slice5index26slice_start_index_len_fail17hdf8c0aea852237a1E>
 - func[308] size=121 <_ZN4core9panicking18panic_bounds_check17h24953fa031ee3e13E>
 - func[309] size=15 <_ZN4core5slice5index24slice_end_index_len_fail17hf69e11a376ccfddbE>
 - func[310] size=890 <_ZN4core3fmt9Formatter3pad17hbad76490c47154d2E>
 - func[311] size=77 <_ZN4core9panicking5panic17h3b99507adb69386aE>
 - func[312] size=74 <_ZN4core9panicking13assert_failed17h6a90bb8f78ebb29bE>
 - func[313] size=928 <_ZN4core3num7flt2dec8strategy6dragon9mul_pow1017hf2b36942205b7ee0E>
 - func[314] size=824 <_ZN4core3num6bignum8Big32x4010mul_digits17h975a7a69ffdc8c3fE>
 - func[315] size=6295 <_ZN4core3num7flt2dec8strategy6dragon15format_shortest17h488109e3398ee326E>
 - func[316] size=515 <_ZN4core3num6bignum8Big32x408mul_pow217h1540d9e6747bb030E>
 - func[317] size=5313 <_ZN4core3num7flt2dec8strategy6dragon12format_exact17h8270a2f8cd57f21aE>
 - func[318] size=2248 <_ZN4core3num7flt2dec8strategy5grisu19format_shortest_opt17h2ccc4dfd6ad4e028E>
 - func[319] size=67 <_ZN4core9panicking11panic_const23panic_const_div_by_zero17h22ae5ed81ae7585cE>
 - func[320] size=1152 <_ZN4core3num7flt2dec8strategy5grisu16format_exact_opt17h72bd3644793cda4dE>
 - func[321] size=418 <_ZN4core3num7flt2dec8strategy5grisu16format_exact_opt14possibly_round17hdda27a3cbfa9b528E>
 - func[322] size=445 <_ZN4core3num7flt2dec17digits_to_dec_str17h9e6775b00d84c909E>
 - func[323] size=99 <_ZN4core3num23from_str_radix_panic_rt17h717678f0852fe055E>
 - func[324] size=17 <_ZN4core3fmt3num3imp52_$LT$impl$u20$core..fmt..Display$u20$for$u20$u32$GT$3fmt17h85fc646d908d0c7bE>
 - func[325] size=26 <_ZN4core3num21from_str_radix_assert17h5e09c51bfb2726aaE>
 - func[326] size=375 <_ZN4core3fmt3num50_$LT$impl$u20$core..fmt..Debug$u20$for$u20$u32$GT$3fmt17h6dbb21529d389504E>
 - func[327] size=683 <_ZN4core3fmt5write17hbee61cd3fb7b52a3E>
 - func[328] size=70 <_ZN71_$LT$core..ops..range..Range$LT$Idx$GT$$u20$as$u20$core..fmt..Debug$GT$3fmt17ha51f9fe0f83a6904E>
 - func[329] size=34 <_ZN36_$LT$T$u20$as$u20$core..any..Any$GT$7type_id17h4e5a4609280a40f1E>
 - func[330] size=15 <_ZN4core5slice5index22slice_index_order_fail17h290993cce6d00be4E>
 - func[331] size=949 <_ZN4core4char7methods22_$LT$impl$u20$char$GT$16escape_debug_ext17hd6fbfdded298ac3fE>
 - func[332] size=363 <_ZN4core7unicode12unicode_data15grapheme_extend11lookup_slow17hae75143cd20a0835E>
 - func[333] size=307 <_ZN4core7unicode9printable12is_printable17h230dbbf0f4101f74E>
 - func[334] size=316 <_ZN4core4char13EscapeUnicode3new17hd360c35b4fd50ce7E>
 - func[335] size=31 <_ZN4core4char11EscapeDebug9backslash17h6d5e6d562b4c3bd4E>
 - func[336] size=19 <_ZN4core4char11EscapeDebug5clear17hd489a949d23fee6fE>
 - func[337] size=753 <_ZN4core3str8converts9from_utf817h827a506db57c9fc0E>
 - func[338] size=475 <_ZN4core3fmt8builders11DebugStruct5field17h04cadba0a8386f18E>
 - func[339] size=17 <_ZN4core3fmt3num3imp51_$LT$impl$u20$core..fmt..Display$u20$for$u20$u8$GT$3fmt17h773d29d0e82b9bd0E>
 - func[340] size=143 <_ZN4core6result13unwrap_failed17h4ed86702351a3017E>
 - func[341] size=19 <_ZN4core6option13unwrap_failed17h0d060778de0f79e8E>
 - func[342] size=49 <_ZN4core6option13expect_failed17h637b3c5bf9792ea8E>
 - func[343] size=86 <_ZN4core9panicking13panic_display17hbd841ae85eb3dff4E>
 - func[344] size=20 <_ZN44_$LT$$RF$T$u20$as$u20$core..fmt..Display$GT$3fmt17h87ef43d072a4bed1E>
 - func[345] size=432 <_ZN4core9panicking19assert_failed_inner17h95edf372af7e7269E>
 - func[346] size=24 <_ZN42_$LT$$RF$T$u20$as$u20$core..fmt..Debug$GT$3fmt17h7a9a11a22d9e302cE>
 - func[347] size=20 <_ZN59_$LT$core..fmt..Arguments$u20$as$u20$core..fmt..Display$GT$3fmt17h9e328ff30fa0b781E>
 - func[348] size=563 <_ZN68_$LT$core..fmt..builders..PadAdapter$u20$as$u20$core..fmt..Write$GT$9write_str17he0e73688d1af7a7cE>
 - func[349] size=88 <_ZN68_$LT$core..fmt..builders..PadAdapter$u20$as$u20$core..fmt..Write$GT$10write_char17h030517870a05e9b3E>
 - func[350] size=366 <_ZN4core3fmt8builders10DebugTuple5field17he64b93765707a70bE>
 - func[351] size=368 <_ZN4core3fmt8builders8DebugSet5entry17hc4ef89b349185074E>
 - func[352] size=55 <_ZN4core3fmt8builders9DebugList6finish17h6437239b8af24389E>
 - func[353] size=1037 <_ZN4core3fmt5float29float_to_decimal_common_exact17h6ee626c85f2e9517E>
 - func[354] size=635 <_ZN4core3fmt9Formatter19pad_formatted_parts17hdcadc704d1995422E>
 - func[355] size=802 <_ZN4core3fmt5float32float_to_decimal_common_shortest17h47190af7019d0f5aE>
 - func[356] size=810 <_ZN4core3fmt9Formatter12pad_integral17hcbbcc5e70706fcddE>
 - func[357] size=18 <_ZN4core3fmt5Write9write_fmt17hf49084f2671582bdE>
 - func[358] size=873 <_ZN4core3str5count14do_count_chars17h66d99444d2bc554aE>
 - func[359] size=74 <_ZN4core3fmt9Formatter12pad_integral12write_prefix17h45be8b7045bf0ef1E>
 - func[360] size=576 <_ZN4core3fmt9Formatter21write_formatted_parts17hb91ef84bd177ab23E>
 - func[361] size=26 <_ZN4core3fmt9Formatter9write_str17hb14ec2e1267025f3E>
 - func[362] size=227 <_ZN4core3fmt9Formatter26debug_struct_field1_finish17h21965aa73a49103aE>
 - func[363] size=252 <_ZN4core3fmt9Formatter25debug_tuple_field1_finish17h32ff83f3e7ecdfa2E>
 - func[364] size=55 <_ZN4core3fmt9Formatter10debug_list17h020b602aa898bb4dE>
 - func[365] size=24 <_ZN57_$LT$core..fmt..Formatter$u20$as$u20$core..fmt..Write$GT$10write_char17h915b0b91af6931d7E>
 - func[366] size=45 <_ZN43_$LT$bool$u20$as$u20$core..fmt..Display$GT$3fmt17hfcbfdd782373a372E>
 - func[367] size=951 <_ZN40_$LT$str$u20$as$u20$core..fmt..Debug$GT$3fmt17hd1ff027f6ce692dbE>
 - func[368] size=19 <_ZN4core3str16slice_error_fail17hf299654af5b25f82E>
 - func[369] size=14 <_ZN42_$LT$str$u20$as$u20$core..fmt..Display$GT$3fmt17h3b4f01a80b9664d6E>
 - func[370] size=353 <_ZN41_$LT$char$u20$as$u20$core..fmt..Debug$GT$3fmt17h5885283e9b0736c5E>
 - func[371] size=312 <_ZN43_$LT$char$u20$as$u20$core..fmt..Display$GT$3fmt17ha450893e06223bafE>
 - func[372] size=261 <_ZN4core3fmt17pointer_fmt_inner17h405872dcf4dda6d2E>
 - func[373] size=320 <_ZN4core5slice6memchr14memchr_aligned17h2cc3a36050ee0a77E>
 - func[374] size=121 <_ZN4core5slice5index29slice_start_index_len_fail_rt17h457337ef10e44172E>
 - func[375] size=121 <_ZN4core5slice5index27slice_end_index_len_fail_rt17hc159f02ee83c16faE>
 - func[376] size=121 <_ZN4core5slice5index25slice_index_order_fail_rt17h1310500fac7dbf76E>
 - func[377] size=67 <_ZN4core5slice5index31slice_start_index_overflow_fail17h35d67a6cfc2e35acE>
 - func[378] size=67 <_ZN4core5slice5index29slice_end_index_overflow_fail17h292136872ad585b7E>
 - func[379] size=182 <_ZN4core3str5count23char_count_general_case17h1f58ff1f44535028E>
 - func[380] size=67 <_ZN4core3str6traits23str_index_overflow_fail17h11774b6a99626920E>
 - func[381] size=1578 <_ZN4core3str7pattern11StrSearcher3new17ha5dc9f6b7aeb2b13E>
 - func[382] size=555 <_ZN87_$LT$core..str..lossy..Utf8Chunks$u20$as$u20$core..iter..traits..iterator..Iterator$GT$4next17hd54b7ec5c418cfe8E>
 - func[383] size=179 <_ZN4core3fmt3num52_$LT$impl$u20$core..fmt..UpperHex$u20$for$u20$i8$GT$3fmt17h4f54dcf9028c66e2E>
 - func[384] size=1216 <_ZN4core3str19slice_error_fail_rt17h7d3e01e1a2d58e61E>
 - func[385] size=17 <_ZN4core3fmt3num3imp52_$LT$impl$u20$core..fmt..Display$u20$for$u20$u64$GT$3fmt17hf705bcfd867ab9d4E>
 - func[386] size=377 <_ZN4core7unicode9printable5check17h84062b75a9e2eb0dE>
 - func[387] size=180 <_ZN4core3fmt3num52_$LT$impl$u20$core..fmt..LowerHex$u20$for$u20$i8$GT$3fmt17haea60f5418a9440dE>
 - func[388] size=805 <_ZN4core3num21_$LT$impl$u20$u32$GT$14from_str_radix17hc78d5cd26a631d4aE>
 - func[389] size=99 <_ZN4core3num62_$LT$impl$u20$core..str..traits..FromStr$u20$for$u20$usize$GT$8from_str17hdb55e2acdb5087b9E>
 - func[390] size=357 <_ZN4core3fmt3num3imp7fmt_u6417haef35ab823acabf1E>
 - func[391] size=360 <_ZN4core3fmt3num50_$LT$impl$u20$core..fmt..Debug$u20$for$u20$u64$GT$3fmt17ha586b6f7ee3eb42dE>
 - func[392] size=66 <_ZN4core3fmt5float52_$LT$impl$u20$core..fmt..Display$u20$for$u20$f64$GT$3fmt17h49fda314c7f3aaebE>
 - func[393] size=184 <_ZN4core3fmt3num53_$LT$impl$u20$core..fmt..LowerHex$u20$for$u20$i64$GT$3fmt17h2bcbc8f239071b78E>
 - func[394] size=39 <_ZN4core3fmt3num3imp52_$LT$impl$u20$core..fmt..Display$u20$for$u20$i32$GT$3fmt17h200b2960d383772bE>
 - func[395] size=35 <_ZN4core3fmt3num3imp52_$LT$impl$u20$core..fmt..Display$u20$for$u20$i64$GT$3fmt17he62212bbe9521a6bE>
 - func[396] size=18 <_ZN42_$LT$$RF$T$u20$as$u20$core..fmt..Debug$GT$3fmt17hf029691c75fe4424E>
 - func[397] size=51 <_ZN4core7unicode12unicode_data2cc6lookup17hedeb1e51069009a4E>
 - func[398] size=87 <__lshrti3>
 - func[399] size=110 <__multi3>
 - func[400] size=321 <_ZN17compiler_builtins3mem6memcpy17he2d289fa2eb42ef2E>
 - func[401] size=684 <_ZN17compiler_builtins3mem7memmove17h269e2e7a3fe7eb2aE>
 - func[402] size=181 <_ZN17compiler_builtins3mem6memset17h7cd7cef2899efd6aE>
 - func[403] size=74 <_ZN17compiler_builtins3mem6memcmp17h95f992c5648d6561E>
 - func[404] size=14 <memcpy>
 - func[405] size=14 <memmove>
 - func[406] size=14 <memcmp>
 - func[407] size=14 <memset>
Data[1]:
 - segment[0] <.rodata> memory=0 size=30447 - init i32=1048576
  - 0100000: 696e 7465 726e 616c 2065 7272 6f72 3a20  internal error:
  - 0100010: 656e 7465 7265 6420 756e 7265 6163 6861  entered unreacha
  - 0100020: 626c 6520 636f 6465 2f68 6f6d 652f 6564  ble code/home/ed
  - 0100030: 7561 7264 6f70 696f 7269 6e69 2f2e 6361  uardopiorini/.ca
  - 0100040: 7267 6f2f 7265 6769 7374 7279 2f73 7263  rgo/registry/src
  - 0100050: 2f69 6e64 6578 2e63 7261 7465 732e 696f  /index.crates.io
  - 0100060: 2d36 6631 3764 3232 6262 6131 3530 3031  -6f17d22bba15001
  - 0100070: 662f 7365 7264 655f 6a73 6f6e 2d31 2e30  f/serde_json-1.0
  - 0100080: 2e31 3230 2f73 7263 2f64 652e 7273 0000  .120/src/de.rs..
  - 0100090: 2800 1000 6600 0000 9a04 0000 2200 0000  (...f......."...
  - 01000a0: 2800 1000 6600 0000 9004 0000 2600 0000  (...f.......&...
  - 01000b0: 0100 0000 0000 0000 0100 0000 0200 0000  ................
  - 01000c0: 0100 0000 0000 0000 0100 0000 0300 0000  ................
  - 01000d0: 7374 7275 6374 2041 6464 2077 6974 6820  struct Add with
  - 01000e0: 3220 656c 656d 656e 7473 0000 d000 1000  2 elements......
  - 01000f0: 1a00 0000 0400 0000 0800 0000 0400 0000  ................
  - 0100100: 0500 0000 6c65 6674 7269 6768 746c 6566  ....leftrightlef
  - 0100110: 7472 6967 6874 7374 7275 6374 2041 6464  trightstruct Add
  - 0100120: 0100 0000 0000 0000 696e 7465 726e 616c  ........internal
  - 0100130: 2065 7272 6f72 3a20 656e 7465 7265 6420   error: entered
  - 0100140: 756e 7265 6163 6861 626c 6520 636f 6465  unreachable code
  - 0100150: 3a20 696e 7661 6c69 6420 4f6e 6365 2073  : invalid Once s
  - 0100160: 7461 7465 2801 1000 3c00 0000 2f72 7573  tate(...<.../rus
  - 0100170: 7463 2f31 3239 6633 6239 3936 3461 6634  tc/129f3b9964af4
  - 0100180: 6434 6137 3039 6431 3338 3339 3330 6164  d4a709d1383930ad
  - 0100190: 6531 3264 6665 3763 3038 312f 6c69 6272  e12dfe7c081/libr
  - 01001a0: 6172 792f 7374 642f 7372 632f 7379 732f  ary/std/src/sys/
  - 01001b0: 7379 6e63 2f6f 6e63 652f 6e6f 5f74 6872  sync/once/no_thr
  - 01001c0: 6561 6473 2e72 7300 6c01 1000 5b00 0000  eads.rs.l...[...
  - 01001d0: 3600 0000 1200 0000 6465 7363 7269 7074  6.......descript
  - 01001e0: 696f 6e28 2920 6973 2064 6570 7265 6361  ion() is depreca
  - 01001f0: 7465 643b 2075 7365 2044 6973 706c 6179  ted; use Display
  - 0100200: 6d69 7373 696e 6720 6669 656c 6420 6060  missing field ``
  - 0100210: 0002 1000 0f00 0000 0f02 1000 0100 0000  ................
  - 0100220: 696e 7661 6c69 6420 6c65 6e67 7468 202c  invalid length ,
  - 0100230: 2065 7870 6563 7465 6420 0000 2002 1000   expected .. ...
  - 0100240: 0f00 0000 2f02 1000 0b00 0000 6475 706c  ..../.......dupl
  - 0100250: 6963 6174 6520 6669 656c 6420 6000 0000  icate field `...
  - 0100260: 4c02 1000 1100 0000 0f02 1000 0100 0000  L...............
  - 0100270: 0a00 0000 0000 0000 0100 0000 0200 0000  ................
  - 0100280: 0b00 0000 0400 0000 0400 0000 0c00 0000  ................
  - 0100290: 0b00 0000 0400 0000 0400 0000 0d00 0000  ................
  - 01002a0: 0c00 0000 8002 1000 0e00 0000 0f00 0000  ................
  - 01002b0: 1000 0000 1100 0000 1200 0000 1300 0000  ................
  - 01002c0: 2000 0000 0400 0000 1400 0000 1300 0000   ...............
  - 01002d0: 2000 0000 0400 0000 1500 0000 1400 0000   ...............
  - 01002e0: bc02 1000 1600 0000 1700 0000 1800 0000  ................
  - 01002f0: 1600 0000 1900 0000 1a00 0000 1b00 0000  ................
  - 0100300: 1c00 0000 1d00 0000 1e00 0000 1f00 0000  ................
  - 0100310: 696e 7465 726e 616c 2065 7272 6f72 3a20  internal error:
  - 0100320: 656e 7465 7265 6420 756e 7265 6163 6861  entered unreacha
  - 0100330: 626c 6520 636f 6465 3a20 696e 7661 6c69  ble code: invali
  - 0100340: 6420 4f6e 6365 2073 7461 7465 1003 1000  d Once state....
  - 0100350: 3c00 0000 2f72 7573 7463 2f31 3239 6633  <.../rustc/129f3
  - 0100360: 6239 3936 3461 6634 6434 6137 3039 6431  b9964af4d4a709d1
  - 0100370: 3338 3339 3330 6164 6531 3264 6665 3763  383930ade12dfe7c
  - 0100380: 3038 312f 6c69 6272 6172 792f 7374 642f  081/library/std/
  - 0100390: 7372 632f 7379 732f 7379 6e63 2f6f 6e63  src/sys/sync/onc
  - 01003a0: 652f 6e6f 5f74 6872 6561 6473 2e72 7300  e/no_threads.rs.
  - 01003b0: 5403 1000 5b00 0000 3600 0000 1200 0000  T...[...6.......
  - 01003c0: 2829 6465 7363 7269 7074 696f 6e28 2920  ()description()
  - 01003d0: 6973 2064 6570 7265 6361 7465 643b 2075  is deprecated; u
  - 01003e0: 7365 2044 6973 706c 6179 5472 7946 726f  se DisplayTryFro
  - 01003f0: 6d53 6c69 6365 4572 726f 7200 2000 0000  mSliceError. ...
  - 0100400: 0400 0000 0400 0000 2100 0000 636f 756c  ........!...coul
  - 0100410: 6420 6e6f 7420 636f 6e76 6572 7420 736c  d not convert sl
  - 0100420: 6963 6520 746f 2061 7272 6179 2200 0000  ice to array"...
  - 0100430: 0000 0000 0100 0000 2300 0000 2200 0000  ........#..."...
  - 0100440: 0000 0000 0100 0000 2400 0000 2300 0000  ........$...#...
  - 0100450: 2c04 1000 2500 0000 2600 0000 2700 0000  ,...%...&...'...
  - 0100460: 2800 0000 2900 0000 2a00 0000 1c00 0000  (...)...*.......
  - 0100470: 0400 0000 2b00 0000 2a00 0000 1c00 0000  ....+...*.......
  - 0100480: 0400 0000 2c00 0000 2b00 0000 6804 1000  ....,...+...h...
  - 0100490: 2d00 0000 2e00 0000 2f00 0000 2d00 0000  -......./...-...
  - 01004a0: 3000 0000 3100 0000 3200 0000 3300 0000  0...1...2...3...
  - 01004b0: 3400 0000 3500 0000 3600 0000 3c00 0000  4...5...6...<...
  - 01004c0: 0c00 0000 0400 0000 3d00 0000 3e00 0000  ........=...>...
  - 01004d0: 3f00 0000 6120 4469 7370 6c61 7920 696d  ?...a Display im
  - 01004e0: 706c 656d 656e 7461 7469 6f6e 2072 6574  plementation ret
  - 01004f0: 7572 6e65 6420 616e 2065 7272 6f72 2075  urned an error u
  - 0100500: 6e65 7870 6563 7465 646c 7900 4000 0000  nexpectedly.@...
  - 0100510: 0000 0000 0100 0000 4100 0000 2f72 7573  ........A.../rus
  - 0100520: 7463 2f31 3239 6633 6239 3936 3461 6634  tc/129f3b9964af4
  - 0100530: 6434 6137 3039 6431 3338 3339 3330 6164  d4a709d1383930ad
  - 0100540: 6531 3264 6665 3763 3038 312f 6c69 6272  e12dfe7c081/libr
  - 0100550: 6172 792f 616c 6c6f 632f 7372 632f 7374  ary/alloc/src/st
  - 0100560: 7269 6e67 2e72 7300 1c05 1000 4b00 0000  ring.rs.....K...
  - 0100570: ff09 0000 0e00 0000 2f72 7573 7463 2f31  ......../rustc/1
  - 0100580: 3239 6633 6239 3936 3461 6634 6434 6137  29f3b9964af4d4a7
  - 0100590: 3039 6431 3338 3339 3330 6164 6531 3264  09d1383930ade12d
  - 01005a0: 6665 3763 3038 312f 6c69 6272 6172 792f  fe7c081/library/
  - 01005b0: 636f 7265 2f73 7263 2f73 7472 2f70 6174  core/src/str/pat
  - 01005c0: 7465 726e 2e72 7300 7805 1000 4f00 0000  tern.rs.x...O...
  - 01005d0: 1a06 0000 1400 0000 7805 1000 4f00 0000  ........x...O...
  - 01005e0: 1a06 0000 2100 0000 7805 1000 4f00 0000  ....!...x...O...
  - 01005f0: 0e06 0000 1400 0000 7805 1000 4f00 0000  ........x...O...
  - 0100600: 0e06 0000 2100 0000 4572 726f 7261 7373  ....!...Errorass
  - 0100610: 6572 7469 6f6e 2066 6169 6c65 643a 2073  ertion failed: s
  - 0100620: 656c 662e 6973 5f63 6861 725f 626f 756e  elf.is_char_boun
  - 0100630: 6461 7279 286e 6577 5f6c 656e 2900 0000  dary(new_len)...
  - 0100640: 1c05 1000 4b00 0000 8005 0000 0d00 0000  ....K...........
  - 0100650: 7805 1000 4f00 0000 9b04 0000 2400 0000  x...O.......$...
  - 0100660: 454f 4620 7768 696c 6520 7061 7273 696e  EOF while parsin
  - 0100670: 6720 6120 6c69 7374 454f 4620 7768 696c  g a listEOF whil
  - 0100680: 6520 7061 7273 696e 6720 616e 206f 626a  e parsing an obj
  - 0100690: 6563 7445 4f46 2077 6869 6c65 2070 6172  ectEOF while par
  - 01006a0: 7369 6e67 2061 2073 7472 696e 6745 4f46  sing a stringEOF
  - 01006b0: 2077 6869 6c65 2070 6172 7369 6e67 2061   while parsing a
  - 01006c0: 2076 616c 7565 6578 7065 6374 6564 2060   valueexpected `
  - 01006d0: 3a60 6578 7065 6374 6564 2060 2c60 206f  :`expected `,` o
  - 01006e0: 7220 605d 6065 7870 6563 7465 6420 602c  r `]`expected `,
  - 01006f0: 6020 6f72 2060 7d60 6578 7065 6374 6564  ` or `}`expected
  - 0100700: 2069 6465 6e74 6578 7065 6374 6564 2076   identexpected v
  - 0100710: 616c 7565 6578 7065 6374 6564 2060 2260  alueexpected `"`
  - 0100720: 696e 7661 6c69 6420 6573 6361 7065 696e  invalid escapein
  - 0100730: 7661 6c69 6420 6e75 6d62 6572 6e75 6d62  valid numbernumb
  - 0100740: 6572 206f 7574 206f 6620 7261 6e67 6569  er out of rangei
  - 0100750: 6e76 616c 6964 2075 6e69 636f 6465 2063  nvalid unicode c
  - 0100760: 6f64 6520 706f 696e 7463 6f6e 7472 6f6c  ode pointcontrol
  - 0100770: 2063 6861 7261 6374 6572 2028 5c75 3030   character (\u00
  - 0100780: 3030 2d5c 7530 3031 4629 2066 6f75 6e64  00-\u001F) found
  - 0100790: 2077 6869 6c65 2070 6172 7369 6e67 2061   while parsing a
  - 01007a0: 2073 7472 696e 676b 6579 206d 7573 7420   stringkey must
  - 01007b0: 6265 2061 2073 7472 696e 6769 6e76 616c  be a stringinval
  - 01007c0: 6964 2076 616c 7565 3a20 6578 7065 6374  id value: expect
  - 01007d0: 6564 206b 6579 2074 6f20 6265 2061 206e  ed key to be a n
  - 01007e0: 756d 6265 7220 696e 2071 756f 7465 7366  umber in quotesf
  - 01007f0: 6c6f 6174 206b 6579 206d 7573 7420 6265  loat key must be
  - 0100800: 2066 696e 6974 6520 2867 6f74 204e 614e   finite (got NaN
  - 0100810: 206f 7220 2b2f 2d69 6e66 296c 6f6e 6520   or +/-inf)lone
  - 0100820: 6c65 6164 696e 6720 7375 7272 6f67 6174  leading surrogat
  - 0100830: 6520 696e 2068 6578 2065 7363 6170 6574  e in hex escapet
  - 0100840: 7261 696c 696e 6720 636f 6d6d 6174 7261  railing commatra
  - 0100850: 696c 696e 6720 6368 6172 6163 7465 7273  iling characters
  - 0100860: 756e 6578 7065 6374 6564 2065 6e64 206f  unexpected end o
  - 0100870: 6620 6865 7820 6573 6361 7065 7265 6375  f hex escaperecu
  - 0100880: 7273 696f 6e20 6c69 6d69 7420 6578 6365  rsion limit exce
  - 0100890: 6564 6564 2061 7420 6c69 6e65 2020 636f  eded at line  co
  - 01008a0: 6c75 6d6e 2000 0000 0100 0000 0000 0000  lumn ...........
  - 01008b0: 9408 1000 0900 0000 9d08 1000 0800 0000  ................
  - 01008c0: 4572 726f 7228 2c20 6c69 6e65 3a20 2c20  Error(, line: ,
  - 01008d0: 636f 6c75 6d6e 3a20 2900 0000 c008 1000  column: ).......
  - 01008e0: 0600 0000 c608 1000 0800 0000 ce08 1000  ................
  - 01008f0: 0a00 0000 d808 1000 0100 0000 696e 7661  ............inva
  - 0100900: 6c69 6420 7479 7065 3a20 2c20 6578 7065  lid type: , expe
  - 0100910: 6374 6564 2000 0000 fc08 1000 0e00 0000  cted ...........
  - 0100920: 0a09 1000 0b00 0000 696e 7661 6c69 6420  ........invalid
  - 0100930: 7661 6c75 653a 2000 2809 1000 0f00 0000  value: .(.......
  - 0100940: 0a09 1000 0b00 0000 666c 6f61 7469 6e67  ........floating
  - 0100950: 2070 6f69 6e74 2060 6000 0000 4809 1000   point ``...H...
  - 0100960: 1000 0000 5809 1000 0100 0000 6e75 6c6c  ....X.......null
  - 0100970: 2f68 6f6d 652f 6564 7561 7264 6f70 696f  /home/eduardopio
  - 0100980: 7269 6e69 2f2e 6361 7267 6f2f 7265 6769  rini/.cargo/regi
  - 0100990: 7374 7279 2f73 7263 2f69 6e64 6578 2e63  stry/src/index.c
  - 01009a0: 7261 7465 732e 696f 2d36 6631 3764 3232  rates.io-6f17d22
  - 01009b0: 6262 6131 3530 3031 662f 7365 7264 655f  bba15001f/serde_
  - 01009c0: 6a73 6f6e 2d31 2e30 2e31 3230 2f73 7263  json-1.0.120/src
  - 01009d0: 2f65 7272 6f72 2e72 7300 0000 7009 1000  /error.rs...p...
  - 01009e0: 6900 0000 f701 0000 2100 0000 7009 1000  i.......!...p...
  - 01009f0: 6900 0000 fb01 0000 0c00 0000 7009 1000  i...........p...
  - 0100a00: 6900 0000 0202 0000 2100 0000 7009 1000  i.......!...p...
  - 0100a10: 6900 0000 0b02 0000 2a00 0000 7009 1000  i.......*...p...
  - 0100a20: 6900 0000 0f02 0000 2c00 0000 0000 0000  i.......,.......
  - 0100a30: 0000 0000 0000 f03f 0000 0000 0000 2440  .......?......$@
  - 0100a40: 0000 0000 0000 5940 0000 0000 0040 8f40  ......Y@.....@.@
  - 0100a50: 0000 0000 0088 c340 0000 0000 006a f840  .......@.....j.@
  - 0100a60: 0000 0000 8084 2e41 0000 0000 d012 6341  .......A......cA
  - 0100a70: 0000 0000 84d7 9741 0000 0000 65cd cd41  .......A....e..A
  - 0100a80: 0000 0020 5fa0 0242 0000 00e8 7648 3742  ... _..B....vH7B
  - 0100a90: 0000 00a2 941a 6d42 0000 40e5 9c30 a242  ......mB..@..0.B
  - 0100aa0: 0000 901e c4bc d642 0000 3426 f56b 0c43  .......B..4&.k.C
  - 0100ab0: 0080 e037 79c3 4143 00a0 d885 5734 7643  ...7y.AC....W4vC
  - 0100ac0: 00c8 4e67 6dc1 ab43 003d 9160 e458 e143  ..Ngm..C.=.`.X.C
  - 0100ad0: 408c b578 1daf 1544 50ef e2d6 e41a 4b44  @..x...DP.....KD
  - 0100ae0: 92d5 4d06 cff0 8044 f64a e1c7 022d b544  ..M....D.J...-.D
  - 0100af0: b49d d979 4378 ea44 9102 282c 2a8b 2045  ...yCx.D..(,*. E
  - 0100b00: 3503 32b7 f4ad 5445 0284 fee4 71d9 8945  5.2...TE....q..E
  - 0100b10: 8112 1f2f e727 c045 21d7 e6fa e031 f445  .../.'.E!....1.E
  - 0100b20: ea8c a039 593e 2946 24b0 0888 ef8d 5f46  ...9Y>)F$....._F
  - 0100b30: 176e 05b5 b5b8 9346 9cc9 4622 e3a6 c846  .n.....F..F"...F
  - 0100b40: 037c d8ea 9bd0 fe46 824d c772 6142 3347  .|.....F.M.raB3G
  - 0100b50: e320 79cf f912 6847 1b69 5743 b817 9e47  . y...hG.iWC...G
  - 0100b60: b1a1 162a d3ce d247 1d4a 9cf4 8782 0748  ...*...G.J.....H
  - 0100b70: a55c c3f1 2963 3d48 e719 1a37 fa5d 7248  .\..)c=H...7.]rH
  - 0100b80: 61a0 e0c4 78f5 a648 79c8 18f6 d6b2 dc48  a...x..Hy......H
  - 0100b90: 4c7d cf59 c6ef 1149 9e5c 43f0 b76b 4649  L}.Y...I.\C..kFI
  - 0100ba0: c633 54ec a506 7c49 5ca0 b4b3 2784 b149  .3T...|I\...'..I
  - 0100bb0: 73c8 a1a0 31e5 e549 8f3a ca08 7e5e 1b4a  s...1..I.:..~^.J
  - 0100bc0: 9a64 7ec5 0e1b 514a c0fd dd76 d261 854a  .d~...QJ...v.a.J
  - 0100bd0: 307d 9514 47ba ba4a 3e6e dd6c 6cb4 f04a  0}..G..J>n.ll..J
  - 0100be0: cec9 1488 87e1 244b 41fc 196a e919 5a4b  ......$KA..j..ZK
  - 0100bf0: a93d 50e2 3150 904b 134d e45a 3e64 c44b  .=P.1P.K.M.Z>d.K
  - 0100c00: 5760 9df1 4d7d f94b 6db8 046e a1dc 2f4c  W`..M}.Km..n../L
  - 0100c10: 44f3 c2e4 e4e9 634c 15b0 f31d 5ee4 984c  D.....cL....^..L
  - 0100c20: 1b9c 70a5 751d cf4c 9161 6687 6972 034d  ..p.u..L.af.ir.M
  - 0100c30: f5f9 3fe9 034f 384d 72f8 8fe3 c462 6e4d  ..?..O8Mr....bnM
  - 0100c40: 47fb 390e bbfd a24d 197a c8d1 29bd d74d  G.9....M.z..)..M
  - 0100c50: 9f98 3a46 74ac 0d4e 649f e4ab c88b 424e  ..:Ft..Nd.....BN
  - 0100c60: 3dc7 ddd6 ba2e 774e 0c39 958c 69fa ac4e  =.....wN.9..i..N
  - 0100c70: a743 ddf7 811c e24e 9194 d475 a2a3 164f  .C.....N...u...O
  - 0100c80: b5b9 4913 8b4c 4c4f 1114 0eec d6af 814f  ..I..LLO.......O
  - 0100c90: 1699 11a7 cc1b b64f 5bff d5d0 bfa2 eb4f  .......O[......O
  - 0100ca0: 99bf 85e2 b745 2150 7f2f 27db 2597 5550  .....E!P./'.%.UP
  - 0100cb0: 5ffb f051 effc 8a50 1b9d 3693 15de c050  _..Q...P..6....P
  - 0100cc0: 6244 04f8 9a15 f550 7b55 05b6 015b 2a51  bD.....P{U...[*Q
  - 0100cd0: 6d55 c311 e178 6051 c82a 3456 1997 9451  mU...x`Q.*4V...Q
  - 0100ce0: 7a35 c1ab dfbc c951 6cc1 58cb 0b16 0052  z5.....Ql.X....R
  - 0100cf0: c7f1 2ebe 8e1b 3452 39ae ba6d 7222 6952  ......4R9..mr"iR
  - 0100d00: c759 2909 0f6b 9f52 1dd8 b965 e9a2 d352  .Y)..k.R...e...R
  - 0100d10: 244e 28bf a38b 0853 ad61 f2ae 8cae 3e53  $N(....S.a....>S
  - 0100d20: 0c7d 57ed 172d 7353 4f5c ade8 5df8 a753  .}W..-sSO\..]..S
  - 0100d30: 63b3 d862 75f6 dd53 1e70 c75d 09ba 1254  c..bu..S.p.]...T
  - 0100d40: 254c 39b5 8b68 4754 2e9f 87a2 ae42 7d54  %L9..hGT.....B}T
  - 0100d50: 7dc3 9425 ad49 b254 5cf4 f96e 18dc e654  }..%.I.T\..n...T
  - 0100d60: 7371 b88a 1e93 1c55 e846 b316 f3db 5155  sq.....U.F....QU
  - 0100d70: a218 60dc ef52 8655 ca1e 78d3 abe7 bb55  ..`..R.U..x....U
  - 0100d80: 3f13 2b64 cb70 f155 0ed8 353d fecc 2556  ?.+d.p.U..5=..%V
  - 0100d90: 124e 83cc 3d40 5b56 cb10 d29f 2608 9156  .N..=@[V....&..V
  - 0100da0: fe94 c647 304a c556 3d3a b859 bc9c fa56  ...G0J.V=:.Y...V
  - 0100db0: 6624 13b8 f5a1 3057 80ed 1726 73ca 6457  f$....0W...&s.dW
  - 0100dc0: e0e8 9def 0ffd 9957 8cb1 c2f5 293e d057  .......W....)>.W
  - 0100dd0: ef5d 3373 b44d 0458 6b35 0090 2161 3958  .]3s.M.Xk5..!a9X
  - 0100de0: c542 00f4 69b9 6f58 bb29 8038 e2d3 a358  .B..i.oX.).8...X
  - 0100df0: 2a34 a0c6 dac8 d858 3541 4878 11fb 0e59  *4.....X5AHx...Y
  - 0100e00: c128 2deb ea5c 4359 f172 f8a5 2534 7859  .(-..\CY.r..%4xY
  - 0100e10: ad8f 760f 2f41 ae59 cc19 aa69 bde8 e259  ..v./A.Y...i...Y
  - 0100e20: 3fa0 14c4 eca2 175a 4fc8 19f5 a78b 4d5a  ?......ZO.....MZ
  - 0100e30: 321d 30f9 4877 825a 7e24 7c37 1b15 b75a  2.0.Hw.Z~$|7...Z
  - 0100e40: 9e2d 5b05 62da ec5a 82fc 5843 7d08 225b  .-[.b..Z..XC}."[
  - 0100e50: a33b 2f94 9c8a 565b 8c0a 3bb9 432d 8c5b  .;/...V[..;.C-.[
  - 0100e60: 97e6 c453 4a9c c15b 3d20 b6e8 5c03 f65b  ...SJ..[= ..\..[
  - 0100e70: 4da8 e322 3484 2b5c 3049 ce95 a032 615c  M.."4.+\0I...2a\
  - 0100e80: 7cdb 41bb 487f 955c 5b52 12ea 1adf ca5c  |.A.H..\[R.....\
  - 0100e90: 7973 4bd2 70cb 005d 5750 de06 4dfe 345d  ysK.p..]WP..M.4]
  - 0100ea0: 6de4 9548 e03d 6a5d c4ae 5d2d ac66 a05d  m..H.=j]..]-.f.]
  - 0100eb0: 751a b538 5780 d45d 1261 e206 6da0 095e  u..8W..].a..m..^
  - 0100ec0: ab7c 4d24 4404 405e d6db 602d 5505 745e  .|M$D.@^..`-U.t^
  - 0100ed0: cc12 b978 aa06 a95e 7f57 e716 5548 df5e  ...x...^.W..UH.^
  - 0100ee0: af96 502e 358d 135f 5bbc e479 8270 485f  ..P.5.._[..y.pH_
  - 0100ef0: 72eb 5d18 a38c 7e5f 27b3 3aef e517 b35f  r.]...~_'.:...._
  - 0100f00: f15f 096b dfdd e75f edb7 cb45 57d5 1d60  ._.k..._...EW..`
  - 0100f10: f452 9f8b 56a5 5260 b127 872e ac4e 8760  .R..V.R`.'...N.`
  - 0100f20: 9df1 283a 5722 bd60 0297 5984 7635 f260  ..(:W".`..Y.v5.`
  - 0100f30: c3fc 6f25 d4c2 2661 f4fb cb2e 8973 5c61  ..o%..&a.....s\a
  - 0100f40: 787d 3fbd 35c8 9161 d65c 8f2c 433a c661  x}?.5..a.\.,C:.a
  - 0100f50: 0c34 b3f7 d3c8 fb61 8700 d07a 845d 3162  .4.....a...z.]1b
  - 0100f60: a900 8499 e5b4 6562 d400 e5ff 1e22 9b62  ......eb.....".b
  - 0100f70: 8420 ef5f 53f5 d062 a5e8 ea37 a832 0563  . ._S..b...7.2.c
  - 0100f80: cfa2 e545 527f 3a63 c185 af6b 938f 7063  ...ER.:c...k..pc
  - 0100f90: 3267 9b46 78b3 a463 fe40 4258 56e0 d963  2g.Fx..c.@BXV..c
  - 0100fa0: 9f68 29f7 352c 1064 c6c2 f374 4337 4464  .h).5,.d...tC7Dd
  - 0100fb0: 78b3 3052 1445 7964 56e0 bc66 5996 af64  x.0R.EydV..fY..d
  - 0100fc0: 360c 36e0 f7bd e364 438f 43d8 75ad 1865  6.6....dC.C.u..e
  - 0100fd0: 1473 544e d3d8 4e65 ecc7 f410 8447 8365  .sTN..Ne.....G.e
  - 0100fe0: e8f9 3115 6519 b865 6178 7e5a be1f ee65  ..1.e..eax~Z...e
  - 0100ff0: 3d0b 8ff8 d6d3 2266 0cce b2b6 cc88 5766  =....."f......Wf
  - 0101000: 8f81 5fe4 ff6a 8d66 f9b0 bbee df62 c266  .._..j.f.....b.f
  - 0101010: 389d 6aea 97fb f666 8644 05e5 7dba 2c67  8.j....f.D..}.,g
  - 0101020: d44a 23af 8ef4 6167 891d ec5a b271 9667  .J#...ag...Z.q.g
  - 0101030: eb24 a7f1 1e0e cc67 1377 0857 d388 0168  .$.....g.w.W...h
  - 0101040: d794 ca2c 08eb 3568 0d3a fd37 ca65 6b68  ...,..5h.:.7.ekh
  - 0101050: 4844 fe62 9e1f a168 5ad5 bdfb 8567 d568  HD.b...hZ....g.h
  - 0101060: b14a ad7a 67c1 0a69 af4e acac e0b8 4069  .J.zg..i.N....@i
  - 0101070: 5a62 d7d7 18e7 7469 f13a cd0d df20 aa69  Zb....ti.:... .i
  - 0101080: d644 a068 8b54 e069 0c56 c842 ae69 146a  .D.h.T.i.V.B.i.j
  - 0101090: 8f6b 7ad3 1984 496a 7306 5948 20e5 7f6a  .kz...Ijs.YH ..j
  - 01010a0: 08a4 372d 34ef b36a 0a8d 8538 01eb e86a  ..7-4..j...8...j
  - 01010b0: 4cf0 a686 c125 1f6b 3056 28f4 9877 536b  L....%.k0V(..wSk
  - 01010c0: bb6b 3231 7f55 886b aa06 7ffd de6a be6b  .k21.U.k.....j.k
  - 01010d0: 2a64 6f5e cb02 f36b 353d 0b36 7ec3 276c  *do^...k5=.6~.'l
  - 01010e0: 820c 8ec3 5db4 5d6c d1c7 389a ba90 926c  ....].]l..8....l
  - 01010f0: c6f9 c640 e934 c76c 37b8 f890 2302 fd6c  ...@.4.l7...#..l
  - 0101100: 2373 9b3a 5621 326d eb4f 42c9 aba9 666d  #s.:V!2m.OB...fm
  - 0101110: e6e3 92bb 1654 9c6d 70ce 3b35 8eb4 d16d  .....T.mp.;5...m
  - 0101120: 0cc2 8ac2 b121 066e 8f72 2d33 1eaa 3b6e  .....!.n.r-3..;n
  - 0101130: 9967 fcdf 524a 716e 7f81 fb97 e79c a56e  .g..RJqn.......n
  - 0101140: df61 fa7d 2104 db6e 2c7d bcee 94e2 106f  .a.}!..n,}.....o
  - 0101150: 769c 6b2a 3a1b 456f 9483 06b5 0862 7a6f  v.k*:.Eo.....bzo
  - 0101160: 3d12 2471 457d b06f cc16 6dcd 969c e46f  =.$qE}.o..m....o
  - 0101170: 7f5c c880 bcc3 1970 cf39 7dd0 551a 5070  .\.....p.9}.U.Pp
  - 0101180: 4388 9c44 eb20 8470 54aa c315 2629 b970  C..D. .pT...&).p
  - 0101190: e994 349b 6f73 ef70 11dd 00c1 25a8 2371  ..4.os.p....%.#q
  - 01011a0: 5614 4131 2f92 5871 6b59 91fd bab6 8e71  V.A1/.XqkY.....q
  - 01011b0: e3d7 7ade 3432 c371 dc8d 1916 c2fe f771  ..z.42.q.......q
  - 01011c0: 53f1 9f9b 72fe 2d72 d4f6 43a1 07bf 6272  S...r.-r..C...br
  - 01011d0: 89f4 9489 c96e 9772 ab31 faeb 7b4a cd72  .....n.r.1..{J.r
  - 01011e0: 0b5f 7c73 8d4e 0273 cd76 5bd0 30e2 3673  ._|s.N.s.v[.0.6s
  - 01011f0: 8154 7204 bd9a 6c73 d074 c722 b6e0 a173  .Tr...ls.t."...s
  - 0101200: 0452 79ab e358 d673 86a6 5796 1cef 0b74  .Ry..X.s..W....t
  - 0101210: 14c8 f6dd 7175 4174 187a 7455 ced2 7574  ....quAt.ztU..ut
  - 0101220: 9e98 d1ea 8147 ab74 63ff c232 b10c e174  .....G.tc..2...t
  - 0101230: 3cbf 737f dd4f 1575 0baf 50df d4a3 4a75  <.s..O.u..P...Ju
  - 0101240: 676d 920b 65a6 8075 c008 774e fecf b475  gm..e..u..wN...u
  - 0101250: f1ca 14e2 fd03 ea75 d6fe 4cad 7e42 2076  .......u..L.~B v
  - 0101260: 8c3e a058 1e53 5476 2f4e c8ee e567 8976  .>.X.STv/N...g.v
  - 0101270: bb61 7a6a dfc1 bf76 157d 8ca2 2bd9 f376  .azj...v.}..+..v
  - 0101280: 5a9c 2f8b 76cf 2877 7083 fb2d 5403 5f77  Z./.v.(wp..-T._w
  - 0101290: 2632 bd9c 1462 9377 b07e ecc3 993a c877  &2...b.w.~...:.w
  - 01012a0: 5c9e e734 4049 fe77 f9c2 1021 c8ed 3278  \..4@I.w...!..2x
  - 01012b0: b8f3 5429 3aa9 6778 a530 aab3 8893 9d78  ..T):.gx.0.....x
  - 01012c0: 675e 4a70 357c d278 01f6 5ccc 421b 0779  g^Jp5|.x..\.B..y
  - 01012d0: 8233 747f 13e2 3c79 31a0 a82f 4c0d 7279  .3t...<y1../L.ry
  - 01012e0: 3dc8 923b 9f90 a679 4d7a 770a c734 dc79  =..;...yMzw..4.y
  - 01012f0: 70ac 8a66 fca0 117a 8c57 2d80 3b09 467a  p..f...z.W-.;.Fz
  - 0101300: 6fad 3860 8a8b 7b7a 656c 237c 3637 b17a  o.8`..{zel#|67.z
  - 0101310: 7f47 2c1b 0485 e57a 5e59 f721 45e6 1a7b  .G,....z^Y.!E..{
  - 0101320: db97 3a35 ebcf 507b d23d 8902 e603 857b  ..:5..P{.=.....{
  - 0101330: 468d 2b83 df44 ba7b 4c38 fbb1 0b6b f07b  F.+..D.{L8...k.{
  - 0101340: 5f06 7a9e ce85 247c f687 1846 42a7 597c  _.z...$|...FB.Y|
  - 0101350: fa54 cf6b 8908 907c 382a c3c6 ab0a c47c  .T.k...|8*.....|
  - 0101360: c7f4 73b8 560d f97c f8f1 9066 ac50 2f7d  ..s.V..|...f.P/}
  - 0101370: 3b97 1ac0 6b92 637d 0a3d 21b0 0677 987d  ;...k.c}.=!..w.}
  - 0101380: 4c8c 295c c894 ce7d b0f7 9939 fd1c 037e  L.)\...}...9...~
  - 0101390: 9c75 0088 3ce4 377e 0393 00aa 4bdd 6d7e  .u..<.7~....K.m~
  - 01013a0: e25b 404a 4faa a27e da72 d01c e354 d77e  .[@JO..~.r...T.~
  - 01013b0: 908f 04e4 1b2a 0d7f bad9 826e 513a 427f  .....*.....nQ:B.
  - 01013c0: 2990 23ca e5c8 767f 3374 ac3c 1f7b ac7f  ).#...v.3t.<.{..
  - 01013d0: a0c8 eb85 f3cc e17f 696e 662d 696e 664e  ........inf-infN
  - 01013e0: 614e 0000 4200 0000 0c00 0000 0400 0000  aN..B...........
  - 01013f0: 4300 0000 4400 0000 3f00 0000 2f68 6f6d  C...D...?.../hom
  - 0101400: 652f 6564 7561 7264 6f70 696f 7269 6e69  e/eduardopiorini
  - 0101410: 2f2e 6361 7267 6f2f 7265 6769 7374 7279  /.cargo/registry
  - 0101420: 2f73 7263 2f69 6e64 6578 2e63 7261 7465  /src/index.crate
  - 0101430: 732e 696f 2d36 6631 3764 3232 6262 6131  s.io-6f17d22bba1
  - 0101440: 3530 3031 662f 7365 7264 655f 6a73 6f6e  5001f/serde_json
  - 0101450: 2d31 2e30 2e31 3230 2f73 7263 2f72 6561  -1.0.120/src/rea
  - 0101460: 642e 7273 fc13 1000 6800 0000 a301 0000  d.rs....h.......
  - 0101470: 1e00 0000 fc13 1000 6800 0000 c801 0000  ........h.......
  - 0101480: 1300 0000 fc13 1000 6800 0000 cd01 0000  ........h.......
  - 0101490: 3300 0000 fc13 1000 6800 0000 d101 0000  3.......h.......
  - 01014a0: 3e00 0000 fc13 1000 6800 0000 d701 0000  >.......h.......
  - 01014b0: 3a00 0000 fc13 1000 6800 0000 2802 0000  :.......h...(...
  - 01014c0: 1300 0000 fc13 1000 6800 0000 4002 0000  ........h...@...
  - 01014d0: 2500 0000 0101 0101 0101 0101 0101 0101  %...............
  - 01014e0: 0101 0101 0101 0101 0101 0101 0101 0101  ................
  - 01014f0: 0101 0101 0000 0100 0000 0000 0000 0000  ................
  - 0101500: 0000 0000 0000 0000 0000 0000 0000 0000  ................
  - 0101510: 0000 0000 0000 0000 0000 0000 0000 0000  ................
  - 0101520: 0000 0000 0000 0000 0000 0000 0000 0000  ................
  - 0101530: 0100 0000 0000 0000 0000 0000 0000 0000  ................
  - 0101540: 0000 0000 0000 0000 0000 0000 0000 0000  ................
  - 0101550: 0000 0000 0000 0000 0000 0000 0000 0000  ................
  - 0101560: 0000 0000 0000 0000 0000 0000 0000 0000  ................
  - 0101570: 0000 0000 0000 0000 0000 0000 0000 0000  ................
  - 0101580: 0000 0000 0000 0000 0000 0000 0000 0000  ................
  - 0101590: 0000 0000 0000 0000 0000 0000 0000 0000  ................
  - 01015a0: 0000 0000 0000 0000 0000 0000 0000 0000  ................
  - 01015b0: 0000 0000 0000 0000 0000 0000 0000 0000  ................
  - 01015c0: 0000 0000 0000 0000 0000 0000 0000 0000  ................
  - 01015d0: 0000 0000 fc13 1000 6800 0000 a803 0000  ........h.......
  - 01015e0: 2f00 0000 ffff ffff ffff ffff ffff ffff  /...............
  - 01015f0: ffff ffff ffff ffff ffff ffff ffff ffff  ................
  - 0101600: ffff ffff ffff ffff ffff ffff ffff ffff  ................
  - 0101610: ffff ffff 0001 0203 0405 0607 0809 ffff  ................
  - 0101620: ffff ffff ff0a 0b0c 0d0e 0fff ffff ffff  ................
  - 0101630: ffff ffff ffff ffff ffff ffff ffff ffff  ................
  - 0101640: ffff ffff ff0a 0b0c 0d0e 0fff ffff ffff  ................
  - 0101650: ffff ffff ffff ffff ffff ffff ffff ffff  ................
  - 0101660: ffff ffff ffff ffff ffff ffff ffff ffff  ................
  - 0101670: ffff ffff ffff ffff ffff ffff ffff ffff  ................
  - 0101680: ffff ffff ffff ffff ffff ffff ffff ffff  ................
  - 0101690: ffff ffff ffff ffff ffff ffff ffff ffff  ................
  - 01016a0: ffff ffff ffff ffff ffff ffff ffff ffff  ................
  - 01016b0: ffff ffff ffff ffff ffff ffff ffff ffff  ................
  - 01016c0: ffff ffff ffff ffff ffff ffff ffff ffff  ................
  - 01016d0: ffff ffff ffff ffff ffff ffff ffff ffff  ................
  - 01016e0: ffff ffff 0000 0000 0100 0000 0000 0000  ................
  - 01016f0: 0000 0000 0000 0020 9a99 9999 9999 9999  ....... ........
  - 0101700: 9999 9999 9999 9919 15ae 47e1 7a14 ae47  ..........G.z..G
  - 0101710: e17a 14ae 47e1 7a14 de24 0681 9543 8b6c  .z..G.z..$...C.l
  - 0101720: e7fb a9f1 d24d 6210 96d4 0968 226c 787a  .....Mb....h"lxz
  - 0101730: a52c 431c ebe2 361a ab43 6e86 1bf0 f961  .,C...6..Cn....a
  - 0101740: 84f0 68e3 88b5 f814 2236 5838 49f3 c7b4  ..h....."6X8I...
  - 0101750: 368d edb5 a0f7 c610 6a23 8dc0 0e52 a687  6.......j#...R..
  - 0101760: 5748 afbc 9af2 d71a 884f d766 a541 b89f  WH.......O.f.A..
  - 0101770: df39 8c30 e28e 7915 07a6 121f 5101 2de6  .9.0..y.....Q.-.
  - 0101780: b294 d626 e80b 2e11 a409 51cb 8168 aed6  ...&......Q..h..
  - 0101790: b7ba bdd7 d9df 7c1b ea3a a7a2 34ed f1de  ......|..:..4...
  - 01017a0: 5f95 6479 e17f fd15 bbc8 85e8 f6f0 277f  _.dy..........'.
  - 01017b0: 1911 ea2d 8199 9711 f80d d640 beb4 0c65  ...-.......@...e
  - 01017c0: c281 7649 68c2 251c 9371 de33 9890 70ea  ..vIh.%..q.3..p.
  - 01017d0: 019b 2ba1 869b 8416 43c1 7e29 e0a6 f321  ..+.....C.~)...!
  - 01017e0: 9b15 56e7 9eaf 0312 3735 310f cdd7 8569  ..V.....751....i
  - 01017f0: 2bbc 89d8 97b2 d21c f990 5a3f d7df 3721  +.........Z?..7!
  - 0101800: 8996 d446 46f5 0e17 fa73 48cc 45e6 5fe7  ...FF....sH.E._.
  - 0101810: a0ab 43d2 d15d 7212 5d86 0d7a 3c3d 66a5  ..C..]r.]..z<=f.
  - 0101820: 34ac d2b6 4fc9 831d b19e d794 6397 1e51  4...O.......c..Q
  - 0101830: 5d23 4292 0ca1 9c17 c14b 79dd 82df 7eda  ]#B......Ky...~.
  - 0101840: 7d4f 9b0e 0ab4 e312 68ac 5b62 d198 642a  }O......h.[b..d*
  - 0101850: 96e5 5e17 1020 391e 53f0 e281 a7e0 b6ee  ..^.. 9.S.......
  - 0101860: 4451 b212 40b3 2d18 a926 4fce 524d 9258  DQ..@.-..&O.RM.X
  - 0101870: 6aa7 8ea8 99c2 5713 41a4 7eb0 b77b 5027  j.....W.A.~..{P'
  - 0101880: aad8 7dda f5d0 f21e 3450 65c0 5fc9 a652  ..}.....4Pe._..R
  - 0101890: bb13 cbae c440 c218 90a6 ea99 4cd4 eb0e  .....@......L...
  - 01018a0: c90f 3cf2 369a ce13 800a 11c3 ad53 79b1  ..<.6........Sy.
  - 01018b0: 4119 6050 bef6 b01f 6708 7402 8bdc 2dc1  A.`P....g.t...-.
  - 01018c0: 6747 b3a6 fe5e 5a19 52a0 2935 6fb0 2434  gG...^Z.R.)5o.$4
  - 01018d0: 869f c2eb fe4b 4814 db19 ee90 f259 1d90  .....KH......Y..
  - 01018e0: 9e7f 6889 65d6 3910 5f29 b0b4 1dc3 fb4c  ..h.e.9._).....L
  - 01018f0: 9732 a7a8 d523 f619 b2ba 595d b135 963d  .2...#....Y].5.=
  - 0101900: ac5b 1fba 77e9 c414 2862 e17d 275e ab97  .[..w...(b.}'^..
  - 0101910: 5649 4cfb 9287 9d10 0d9d 68c9 d8c9 abf2  VIL.......h.....
  - 0101920: f00e 7af8 b7a5 951a 3e17 ba3a 7aa1 bc5b  ..z.....>..:z..[
  - 0101930: 5a72 2e2d 9384 4415 cb45 fb2e c81a caaf  Zr.-..D..E......
  - 0101940: ae8e 8b8a 429d 0311 4509 92b1 a6f7 dcb2  ....B...E.......
  - 0101950: 4ae4 78aa 9dfb 381b 04a1 41c1 eb92 7df5  J.x...8...A...}.
  - 0101960: 6e83 2d55 b12f c715 03b4 6767 8975 64c4  n.-U./....gg.ud.
  - 0101970: 589c 5777 2726 6c11 d2ec a5d8 db88 6d6d  X.Ww'&l.......mm
  - 0101980: f4c6 25f2 0b3d e01b db23 eb46 1607 be8a  ..%..=...#.F....
  - 0101990: c338 1e28 a3fd 4c16 49b6 55d2 116c fe6e  .8.(..L.I.U..l.n
  - 01019a0: 9c60 4b53 4f31 d711 0e8a efb6 4f13 97b1  .`KSO1......O...
  - 01019b0: 6067 4585 1882 8b1c a5a1 bff8 720f ac27  `gE.........r..'
  - 01019c0: 1ab9 6a37 ad01 d616 1e4e 9960 c272 56b9  ..j7.....N.`.rV.
  - 01019d0: e160 552c 24ce 4412 9516 c2cd 031e 57f5  .`U,$.D.......W.
  - 01019e0: 35ce bb13 6de3 3a1d abab 010b 0318 ac2a  5...m.:........*
  - 01019f0: 2bd8 2f76 8a4f 6217 5689 346f 02e0 bcbb  +./v.Ob.V.4o....
  - 0101a00: 5513 f3c4 6e0c b512 89a8 edb1 d0cc c792  U...n...........
  - 0101a10: ef1e b8d4 4a7a ee1d 07ba 578e 400a d3db  ....Jz....W.@...
  - 0101a20: f24b 9310 6ffb f117 06c8 df71 00d5 a87c  .K..o......q...|
  - 0101a30: f56f 0fda 58fc 2713 d60c 66e9 33bb a7fa  .o..X.'...f.3...
  - 0101a40: bb4c b229 8e60 a61e 11d7 8487 29fc 5295  .L.).`......).R.
  - 0101a50: c9a3 8e54 0b1a 8518 0eac d0d2 bac9 a8aa  ...T............
  - 0101a60: 0783 d876 6fae 9d13 e3ac 1a1e 5edc dadd  ...vo.......^...
  - 0101a70: a5d1 c057 b2b0 621f 4f8a 484b 4bb0 487e  ...W..b.O.HKK.H~
  - 0101a80: 5141 9aac 8ec0 1b19 d9a1 d3d5 d559 6dcb  QA...........Ym.
  - 0101a90: dacd e156 a533 1614 7b81 dc77 117b 573c  ...V.3..{..w.{W<
  - 0101aa0: e2d7 e7ab eac2 1110 2acf 6059 825e f2c6  ........*.`Y.^..
  - 0101ab0: 3626 a6ac aa04 b619 bba5 8047 6818 f56b  6&.........Gh..k
  - 0101ac0: c551 eb56 559d 9114 9684 0006 ed79 2a23  .Q.VU........y*#
  - 0101ad0: d1a7 22df dd7d 7410 5607 34a3 e18f ddd1  .."..}t.V.4.....
  - 0101ae0: 810c d131 96fc 531a 456c f6e8 1a73 e4a7  ...1..S.El...s..
  - 0101af0: 343d a7f4 44fd 0f15 9e56 f853 e228 1d53  4=..D....V.S.(.S
  - 0101b00: 5d97 525d 6a97 d910 6257 8db9 03db 61eb  ].R]j...bW....a.
  - 0101b10: 2ef2 5095 10bf f51a e845 a4c7 cf48 4ebc  ..P......E...HN.
  - 0101b20: 585b dadd a665 9115 206b 836c d9d3 7163  X[...e.. k.l..qc
  - 0101b30: ade2 e117 1f1e 4111 cd11 9fad 2886 1c9f  ......A.....(...
  - 0101b40: 4804 03f3 6463 9b1b 0bdb 18be 536b b0e5  H...dc......Sk..
  - 0101b50: 069d 358f 1de9 1516 a215 47cb 0f89 f3ea  ..5.......G.....
  - 0101b60: 6b4a 9172 e420 ab11 37bc 7178 4cdb b844  kJ.r. ..7.qxL..D
  - 0101b70: 46aa 1b84 6d01 451c 5f63 c1c6 d615 c703  F...m.E._c......
  - 0101b80: 0555 4903 be9a 9d16 19e9 cd6b 45de 3836  .UI........kE.86
  - 0101b90: 3777 0769 feae 1712 c141 1646 a263 c156  7w.i.....A.F.c.V
  - 0101ba0: 5858 720e 97b1 f21c ce67 abd1 811c 01df  XXr......g......
  - 0101bb0: 7913 f571 128e 2817 a5ec 5541 ce16 347f  y..q..(...UA..4.
  - 0101bc0: 61dc 90c1 0ed8 8612 6e47 5635 7d24 2065  a.......nGV5}$ e
  - 0101bd0: 02c7 e768 e48c a41d 2539 78f7 301d 80ea  ...h....%9x.0...
  - 0101be0: 016c b920 1dd7 b617 84fa 2cf9 f3b0 99bb  .l. ......,.....
  - 0101bf0: 3423 614d 17ac f812 39f7 4728 534e 5c5f  4#aM....9.G(SN\_
  - 0101c00: 5438 6815 f2ac 5a1e 2e2c d3b9 750b 7d7f  T8h...Z..,..u.}.
  - 0101c10: 4360 5344 5b8a 4818 5823 dcc7 f7d5 3099  C`SD[.H.X#....0.
  - 0101c20: cf19 a936 7c3b 6d13 26d2 f972 8c89 b48e  ...6|;m.&..r....
  - 0101c30: b28f 0ef1 f92b 151f b841 2e8f a307 2a72  .....+...A....*r
  - 0101c40: 28a6 0bf4 c7bc dd18 fa9a bea5 4f39 bbc1  (...........O9..
  - 0101c50: 861e d65c 0697 e413 f6f7 3009 19c2 5e9c  ...\......0...^.
  - 0101c60: d730 f0fa d624 d41f f85f 5a07 1468 e549  .0...$..._Z..h.I
  - 0101c70: 798d 262f df83 7619 60e6 e105 1020 516e  y.&/..v.`.... Qn
  - 0101c80: c70a 52bf e5cf 5e14 1a85 81d1 0c80 daf1  ..R...^.........
  - 0101c90: 056f 0e99 84d9 4b10 f5d4 6882 1400 c44f  .o....K...h....O
  - 0101ca0: d6e4 e3f4 a0f5 121a 2b77 ed01 aa99 69d9  ........+w....i.
  - 0101cb0: 11b7 1cf7 b3f7 db14 bcc5 8a01 8814 eead  ................
  - 0101cc0: 7492 b0c5 5cf9 af10 2c09 de68 a6ed 7c49  t...\...,..h..|I
  - 0101cd0: 54ea 806f 9428 b31a 24d4 e453 b857 ca3a  T..o.(..$..S.W.:
  - 0101ce0: 1055 9abf 7620 5c15 8376 1d43 6079 3b62  .U..v \..v.C`y;b
  - 0101cf0: 73aa aeff 5e80 1611 9ebd c8d1 66f5 2b9d  s...^.......f.+.
  - 0101d00: b810 b132 cb33 571b 7f64 6d41 52c4 bc7d  ...2.3W..dmAR..}
  - 0101d10: 600d f48e a25c df15 ccb6 8a67 db69 fdca  `....\.....g.i..
  - 0101d20: e63d c3d8 4e7d 7f11 df8a 7772 c50f 2fab  .=..N}....wr../.
  - 0101d30: d72f 058e e42e ff1b 80d5 925b 0473 f288  ./.........[.s..
  - 0101d40: ac8c 6a3e 1dbf 6516 6644 4249 d028 f5d3  ..j>..e.fDBI.(..
  - 0101d50: 563d 5598 4aff ea11 a3a0 0342 4d41 88b9  V=U.J......BMA..
  - 0101d60: 5795 bbf3 1032 ab1c e9e6 0268 d7cd 3961  W....2.....h..9a
  - 0101d70: 7977 fcc2 405b ef16 5452 0220 7971 61e7  yw..@[..TR. yqa.
  - 0101d80: 2df9 c968 cd15 5912 8650 9d99 8eb5 68a5  -..h..Y..P....h.
  - 0101d90: 7c5b 7674 1556 5b1d d2a6 4ae1 3e91 2051  |[vt.V[...J.>. Q
  - 0101da0: fd15 c5f6 dd44 7c17 0e1f a21a ff40 4da7  .....D|......@M.
  - 0101db0: ca44 3792 b1d0 c912 4acb 69f7 64ce ae0b  .D7.....J.i.d...
  - 0101dc0: 116e 5850 4fb4 0f1e 3b3c eec5 50d8 8b3c  .nXPO...;<..P..<
  - 0101dd0: a7f1 7973 3f90 0c18 c9c9 f137 da79 09ca  ..ys?......7.y..
  - 0101de0: 85f4 c7c2 3240 3d13 db42 e9bf f6c2 a8a9  ....2@=..B......
  - 0101df0: 6fba 0c9e b766 c81e e39b bacc 2bcf 5321  o....f......+.S!
  - 0101e00: 2695 707e 2c52 a018 8249 9570 8972 a91a  &.p~,R...I.p.r..
  - 0101e10: b8dd 2665 f074 b313 9d75 881a 0f84 75f7  ..&e.t...u....u.
  - 0101e20: 8c2f 3e08 e787 851f 175e a07b 7236 915f  ./>......^.{r6._
  - 0101e30: 0a26 9806 ec9f 3719 dfe4 1996 5bf8 4019  .&....7.....[.@.
  - 0101e40: d584 4605 f07f 2c14 4cea 47ab afc6 00e1  ..F...,.L.G.....
  - 0101e50: 1037 05d1 8c99 2310 47dd 3f45 4ca4 67ce  .7....#.G.?EL.g.
  - 0101e60: e724 d5b4 478f d219 06b1 cc9d d6e9 52d8  .$..G.........R.
  - 0101e70: 1fb7 ddc3 9f72 a814 3827 0a4b 45ee db79  .....r..8'.KE..y
  - 0101e80: 192c 7e69 19c2 8610 59d8 a911 a2e3 5f29  .,~i....Y....._)
  - 0101e90: 8f46 300f 8f36 711a 7a13 bba7 811c b3ba  .F0..6q.z.......
  - 0101ea0: a56b f3d8 d85e 2715 2fa9 95ec 9ae3 2862  .k...^'./.....(b
  - 0101eb0: 5189 8fad e04b ec10 1775 efe0 f738 0e9d  Q....K...u...8..
  - 0101ec0: e80e 4caf 9aac 131b 792a 591a 932d d8b0  ..L.....y*Y..-..
  - 0101ed0: 5372 d625 e256 a915 2e55 4748 0fbe 798d  Sr.%.V...UGH..y.
  - 0101ee0: dcc1 deb7 8145 5411 7cbb 0bda 7e96 8f15  .....ET.|...~...
  - 0101ef0: 949c 978c cf08 ba1b 972f d614 ff11 a677  ........./.....w
  - 0101f00: 76b0 dfd6 726d 2e16 798c de43 ffa7 51f9  v...rm..y..C..Q.
  - 0101f10: 91f3 b278 f5bd be11 8ead fdd2 fe3f 1cc2  ...x.........?..
  - 0101f20: 1cec b75a 2263 641c d88a 6442 3233 b001  ...Z"cd...dB23..
  - 0101f30: 17f0 5f15 b5b5 b616 46a2 839b 8ec2 5901  .._.....F.....Y.
  - 0101f40: ac59 e6dd 90c4 2b12 a303 395f 1704 f6ce  .Y....+...9_....
  - 0101f50: acc2 a3fc 1ad4 121d 839c 2d4c ac69 5e72  ..........-L.i^r
  - 0101f60: bd9b 1cca 4843 4217 9ce3 8ad6 8954 18f5  ....HCB......T..
  - 0101f70: fde2 1608 0769 9b12 c605 abbd 0f54 8dee  .....i.......T..
  - 0101f80: 2f6b f10c d874 c51d 056b 22fe 7276 d7be  /k...t...k".rv..
  - 0101f90: 8c22 c170 462a d117 04bc 4ecb 28c5 12ff  .".pF*....N.(...
  - 0101fa0: d64e 678d 6bbb 0d13 a0f9 7d78 743b 51cb  .Ng.k.....}xt;Q.
  - 0101fb0: 247e d87b 125f 7c1e 4d61 fef9 29c9 0d09  $~.{._|.Ma..)...
  - 0101fc0: b731 adfc 417f 6318 0a81 cb94 21d4 d7a0  .1..A.c.....!...
  - 0101fd0: c527 24ca 34cc 8213 77ce 7854 cfb9 bf67  .'$.4...w.xT...g
  - 0101fe0: 6f0c 6d43 21ad 371f f971 2ddd a594 cc1f  o.mC!.7..q-.....
  - 0101ff0: 5970 8acf 4d57 f918 c7f4 bd7d 51dd d67f  Yp..MW.....}Q...
  - 0102000: 7af3 a13f 3eac fa13 0bee 2fc9 e82e beff  z..?>...../.....
  - 0102010: c3b8 9c32 fd79 f71f d624 f3a0 20bf 3166  ...2.y...$.. .1f
  - 0102020: 36fa 16c2 fdc7 9219 781d 5c1a 1acc 27b8  6.......x.\...'.
  - 0102030: 5efb ab01 cb6c 7514 60e4 7c7b ae09 5393  ^....lu.`.|{..S.
  - 0102040: 18c9 bc67 a2f0 5d10 99a0 94c5 b042 eb1e  ...g..]......B..
  - 0102050: f474 943f 6ae7 2f1a e1e6 7604 2702 89e5  .t.?j./...v.'...
  - 0102060: 5c2a dd32 881f f314 e7eb 2b9d 85ce a0b7  \*.2......+.....
  - 0102070: b0ee b028 a07f c210 d8df df61 6f4a 0159  ...(.......aoJ.Y
  - 0102080: b44a 4e74 33cc d01a ad4c e6e7 25d5 cde0  .JNt3....L..%...
  - 0102090: 29a2 3e90 8fd6 7315 f1d6 5186 5177 714d  ).>...s...Q.QwqM
  - 01020a0: eeb4 cbd9 7278 2911 e857 e9d6 e8be e87b  ....rx)..W.....{
  - 01020b0: b054 ac8f 848d 751b 2013 21df 5332 bafc  .T....u. .!.S2..
  - 01020c0: 59dd 890c 6aa4 f715 8042 e718 4328 c863  Y...j....B..C(.c
  - 01020d0: ae4a 6e70 eee9 9211 666a d827 380d 0d06  .Jnp....fj.'8...
  - 01020e0: 1711 4a1a 1743 1e1c eb21 adec 2ca4 3d6b  ..J..C...!..,.=k
  - 01020f0: 1274 6e7b 129c 7e16 564e 57bd f01c fe88  .tn{..~.VNW.....
  - 0102100: db5c 58fc 41e3 fe11 234a 2562 b494 9641  .\X.A...#J%b...A
  - 0102110: 5f61 8d60 3605 cb1c e9d4 1de8 29aa ab67  _a.`6.......)..g
  - 0102120: 7fe7 3d4d f8d0 0817 87dd 1720 bb21 56b9  ..=M....... .!V.
  - 0102130: 32b9 64d7 f973 6d12 a595 8c66 2b69 23c2  2.d..sm....f+i#.
  - 0102140: eac1 3af2 c2ec 7b1d 1dde d61e 89ba 82ce  ..:...{.........
  - 0102150: bb34 625b 0257 9617 1818 df4b 0762 35a5  .4b[.W.....K.b5.
  - 0102160: fcf6 b4e2 01ac de12 59f3 6479 d89c 883b  ........Y.dy...;
  - 0102170: 94f1 8737 3613 311e e1f5 83c7 464a 6dfc  ...76.1.....FJm.
  - 0102180: dc5a 06c6 9142 2718 1a2b 0306 9f6e 5730  .Z...B'..+...nW0
  - 0102190: 17af 9ed1 a79b 5213 90de d13c cb7d 251a  ......R....<.}%.
  - 01021a0: 2518 311c a692 ea1e 40e5 a730 3cfe 1d48  %.1.....@..0<..H
  - 01021b0: b779 5ae3 84a8 bb18 0051 86c0 c931 4bd3  .yZ......Q...1K.
  - 01021c0: c5c7 ae82 9d53 c913 cdb4 a3cd 42e9 1152  .....S......B..R
  - 01021d0: 09a6 17d1 c885 a81f a490 1c3e 0221 db74  ...........>.!.t
  - 01021e0: 07b8 df40 3a9e 5319 500d 4acb 01b4 15f7  ...@:.S.P.J.....
  - 01021f0: 0560 1967 fbe4 4214 a70a 0809 9b29 def8  .`.g..B......)..
  - 0102200: 37b3 7a52 fc83 3510 d7dd 0ca8 9142 308e  7.zR..5......B0.
  - 0102210: 59b8 2ab7 9339 ef19 134b 0a20 0e02 8d3e  Y.*..9...K. ...>
  - 0102220: e1f9 eef8 4261 bf14 0f3c 0880 3e9b 3d65  ....Ba...<..>.=e
  - 0102230: e7c7 58fa 9b1a 9910 e42c 0d00 64f8 c86e  ..X......,..d..n
  - 0102240: a50c 8e90 f990 8e1a ea23 a499 e9f9 d38b  .........#......
  - 0102250: b7a3 7140 61da 3e15 bb1c 50e1 ba94 a93c  ..q@a.>...P....<
  - 0102260: f982 f499 1a15 ff10 2b61 b39b c4ba 75c7  ........+a....u.
  - 0102270: 8ed1 20c3 5dbb 311b 891a 2916 6a95 c4d2  .. .].1...).j...
  - 0102280: 0b0e e768 b162 c115 a17b ba11 8877 d0db  ...h.b...{...w..
  - 0102290: 6f3e 1f87 2782 6711 9b92 5d1c 40bf 802c  o>..'.g...].@..,
  - 01022a0: e663 983e 3fd0 d81b 4975 e449 33cc 33bd  .c.>?...Iu.I3.3.
  - 01022b0: 51b6 4665 ff0c 4716 d45d 506e 8fd6 8fca  Q.Fe..G..]Pn....
  - 01022c0: a75e 0551 cc70 d211 53c9 b3e3 4b57 1944  .^.Q.p..S...KW.D
  - 01022d0: d9fd 6e4e ade7 831c a93a f682 0979 4703  ..nN.....:...yG.
  - 01022e0: e197 25a5 8aec cf16 bafb c468 d460 6ccf  ..%........h.`l.
  - 01022f0: 8079 84ea 6ef0 3f12 2af9 070e 8734 7ae5  .y..n.?.*....4z.
  - 0102300: 9af5 d310 4b1a 331d 2294 390b 6c90 2e51  ....K.3.".9.l..Q
  - 0102310: e22a 43da 0815 5c17 b5a9 c7d5 bca6 8bda  .*C...\.........
  - 0102320: 8155 cfe1 d310 b012 870f d922 2e71 df90  .U.........".q..
  - 0102330: 9c55 e502 5381 e61d 6c0c 144f 8b5a 4cda  .U..S...l..O.ZL.
  - 0102340: 16de 1dcf a89a eb17 8aa3 a9a5 a27b a3ae  .............{..
  - 0102350: 787e b1a5 20e2 2213 a905 a9a2 6a5f d27d  x~.. .".....j_.}
  - 0102360: 2797 b5a2 9a36 9e1e 54d1 2082 887f db97  '....6..T. .....
  - 0102370: 1fac f74e 1592 7e18 77a7 80ce 0666 7c79  ...N..~.w....f|y
  - 0102380: 4c23 c6d8 dd74 9813 f10b 01e4 0a70 2d8f  L#...t.......p-.
  - 0102390: ad6b a327 9654 5a1f 5ad6 0050 a259 240c  .k.'.TZ.Z..P.Y$.
  - 01023a0: beef b51f 7810 1519 1545 9ad9 8114 1d70  ....x....E.....p
  - 01023b0: fef2 f7b2 f9d9 1014 776a 7b14 9b43 17c0  ........wj{..C..
  - 01023c0: fe5b c628 2e7b 0d10 f243 92ed c405 f2cc  .[.(.{...C......
  - 01023d0: ca2c 0a0e 7d2b af19 c29c 0ebe d037 5b0a  .,..}+.......7[.
  - 01023e0: 6fbd a171 ca22 8c14 cee3 3ecb 73f9 4808  o..q."....>.s.H.
  - 01023f0: 8c97 b427 d51b 7010 b09f 6478 ec5b 0eda  ...'..p...dx.[..
  - 0102400: ac25 540c 55f9 4c1a c07f 5060 f0af 3e7b  .%T.U.L...P`..>{
  - 0102410: bdb7 a9d6 1061 0a15 3366 4080 f3bf cb95  .....a..3f@.....
  - 0102420: 972c eede 731a d510 5270 cd66 5266 acef  .,..s...Rp.fRf..
  - 0102430: 5847 b064 b990 ee1a db59 a4b8 0e85 2326  XG.d.....Y....#&
  - 0102440: 476c f3b6 faa6 8b15 49ae b693 d8d0 821e  Gl......I.......
  - 0102450: 6c23 295f 9585 3c11 75b0 8a1f f41a 9efd  l#)_..<.u.......
  - 0102460: ac38 a8fe ee08 941b f759 d5b2 29af b197  .8.......Y..)...
  - 0102470: bd93 8698 2507 1016 2c7b 77f5 ba25 8eac  ....%...,{w..%..
  - 0102480: 97dc 9e13 1e6c a611 13c5 5822 2b09 7d7a  .....l....X"+.}z
  - 0102490: bf2d feb8 c979 3d1c 766a ad4e efa0 fd61  .-...y=.vj.N...a
  - 01024a0: cc57 cb60 a194 9716 c5ee bd0b 591a fee7  .W.`........Y...
  - 01024b0: 0913 09e7 4ddd 1212 3ab1 fc45 5b5d 63a6  ....M...:..E[]c.
  - 01024c0: dc84 0ed8 affb ea1c c88d 306b af4a 1c85  ..........0k.J..
  - 01024d0: b0d0 3e13 f362 2217 d4d7 26bc f26e e3d0  ..>..b"...&..n..
  - 01024e0: 26da cb75 c2e8 8112 868c a4c6 ea17 9fb4  &..u............
  - 01024f0: d729 4689 9da7 9c1d 6b70 5005 efdf 182a  .)F.....kpP....*
  - 0102500: 46ee 04a1 1786 b017 89f3 d99d 25b3 e054  F...........%..T
  - 0102510: 6b8b 9d4d 799e f312 7452 f662 6feb cd87  k..My...tR.bo...
  - 0102520: 7845 2f7c 2897 521e 5da8 5e82 bf22 0bd3  xE/|(.R.].^.."..
  - 0102530: c66a bfc9 8612 4218 e4b9 4b68 cc1b 3c0f  .j....B...Kh..<.
  - 0102540: 9f88 ff3a d20e 6813 6d29 7940 7a2c 6018  ...:..h.m)y@z,`.
  - 0102550: 98da 9891 83e4 0c1f 2421 9433 c856 b346  ........$!.3.V.F
  - 0102560: 13e2 130e 361d d718 b64d 4329 a078 8f38  ....6....MC).x.8
  - 0102570: dcb4 dca4 914a df13 8aaf 6ba8 6627 7f5a  .....J....k.f'.Z
  - 0102580: 6021 61a1 82aa cb1f a2bf efb9 eb85 3215  `!a...........2.
  - 0102590: 4db4 4db4 9bbb 6f19 4e99 8c61 89d1 8eaa  M.M...o.N..a....
  - 01025a0: 3d90 a4f6 e262 5914 0ce1 d61a a1a7 d8ee  =....bY.........
  - 01025b0: cad9 b62b 4f82 4710 459b 245e 9b72 277e  ...+O.G.E.$^.r'~
  - 01025c0: 11f6 8adf b103 0c1a 0449 1d18 49f5 85fe  .........I..I...
  - 01025d0: 0df8 3b19 5b69 d614 d0a0 4a13 d45d 9ecb  ..;.[i....J..]..
  - 01025e0: a4f9 2f14 7c87 ab10 4d01 1152 53c9 63df  ../.|...M..RS.c.
  - 01025f0: 3a5c e6b9 f90b ac1a 7167 da74 0fa1 1c19  :\......qg.t....
  - 0102600: 2fb0 1efb fa6f 5615 c152 482a d980 b0ad  /....oV..RH*....
  - 0102610: 25c0 4b2f 2ff3 1111 3451 0daa 8e34 e715  %.K//...4Q...4..
  - 0102620: 09cd 12b2 7eeb 4f1b c40d 71ee 3e5d 1fab  ....~.O...q.>]..
  - 0102630: 6d0a 0f28 3289 d915 9da4 8d8b 6517 19bc  m..(2.......e...
  - 0102640: 5708 0c20 28d4 7a11 943a 7c12 3cf2 f42c  W.. (.z..:|.<..,
  - 0102650: 590d e0cc d9b9 f71b 4395 96db fcf4 c3f0  Y.......C.......
  - 0102660: e03d b370 e1c7 5f16 0311 1216 975d 365a  .=.p.._......]6Z
  - 0102670: 1acb f526 8139 e611 04e8 1cf0 24fc 5690  ...&.9......$.V.
  - 0102680: 90de 220b 358f a31c d0ec e38c 1d30 dfd9  ..".5........0..
  - 0102690: a64b 82a2 5d3f e916 da23 833d b159 7fe1  .K..]?...#.=.Y..
  - 01026a0: eba2 ce4e b132 5412 5c39 382f b5c2 cb68  ...N.2T.\98/...h
  - 01026b0: 79d1 7de4 4e84 531d e32d 60bf 5d35 d653  y.}.N.S..-`.]5.S
  - 01026c0: 94a7 6450 7203 7617 1c8b e665 b12a 78a9  ..dPr.v....e.*x.
  - 01026d0: 76ec b6a6 8ecf c412 fa44 d76f b5aa 260f  v........D.o..&.
  - 01026e0: f113 8bd7 7db2 071e 626a dfbf 2a22 523f  ....}...bj..*"R?
  - 01026f0: 2743 6fac 6428 0618 4e88 7f99 884e db65  'Co.d(..N....N.e
  - 0102700: 1f9c f289 5020 3813 4a0d cc28 744a c56f  ....P 8.J..(tJ.o
  - 0102710: 6593 ea0f b433 c01e 3ba4 0987 f6a1 6a59  e....3..;.....jY
  - 0102720: 840f 2273 f6c2 9918 96b6 076c f8e7 eead  .."s.......l....
  - 0102730: 36d9 b4f5 9135 ae13 5657 0ce0 f33f 7e49  6....5..VW...?~I
  - 0102740: 24f5 ba22 8322 7d1f 45ac d64c f6ff 64d4  $.."."}.E..L..d.
  - 0102750: e990 95e8 68e8 3019 d189 783d f8ff 8343  ....h.0...x=...C
  - 0102760: ee73 44ed 5320 2714 74a1 9397 c6cc 9ccf  .sD.S '.t.......
  - 0102770: f18f 03f1 0f4d 1f10 5202 b925 a447 617f  .....M..R..%.Ga.
  - 0102780: 1cb3 05e8 7fae cb19 0f35 c7b7 e9d2 4dcc  .........5....M.
  - 0102790: 165c d1ec fff1 a214 d990 d25f 210f 0b3d  .\........._!..=
  - 01027a0: 12b0 da23 335b 8210 c1e7 5099 684b ab61  ...#3[....P.hK.a
  - 01027b0: 50b3 2a06 852b 6a1a 67b9 4014 baa2 224e  P.*..+j.g.@..."N
  - 01027c0: 405c 556b 6abc 2115 5394 00dd 94e8 4e0b  @\Ukj.!.S.....N.
  - 01027d0: cd49 44bc eec9 e710 51ed 00c8 87da 1712  .ID.....Q.......
  - 01027e0: 48a9 d3c6 4a76 0c1b dabd 00a0 6c48 46db  H...Jv......lHF.
  - 01027f0: 6c87 dc6b d591 a315 af64 cd4c bd06 0549  l..k.....d.L...I
  - 0102800: 8a9f e3ef dda7 4f11 b13a e27a c80a 08a8  ......O..:.z....
  - 0102810: 43ff 38e6 2fa6 b21b f42e e8fb 39a2 3953  C.8./.......9.9S
  - 0102820: 69ff 931e f384 2816 5df2 ec2f fbb4 c775  i.....(.]../...u
  - 0102830: 87ff 0fb2 f503 ba11 2eea 47e6 9121 d922  ..........G..!."
  - 0102840: 3fff 7fb6 22d3 5c1c f254 0685 4181 7ab5  ?...".\..T..A.z.
  - 0102850: 65ff ff91 e8a8 b016 f543 3837 0101 62c4  e........C87..b.
  - 0102860: b732 33db 86ed 2612 ee9f f3f1 0168 363a  .23...&......h6:
  - 0102870: 5984 eb91 a415 0b1d 8b19 f627 9bb9 5efb  Y..........'..^.
  - 0102880: e069 bc74 5011 3c17 d67a 5e86 e2fa 7e2f  .i.tP.<..z^...~/
  - 0102890: e787 635d 4074 9612 5691 fdd6 d0f7 97e5  ..c]@t..V.......
  - 01028a0: 71d9 3862 cd86 bd1d abda ca78 0d93 7984  q.8b.......x..y.
  - 01028b0: c17a 2de8 3dd2 ca17 5615 6f2d 7142 61d0  .z-.=...V.o-qBa.
  - 01028c0: 9ac8 8a86 31a8 0813 2222 18af 4e6a 684d  ....1...""..NjhM
  - 01028d0: 91da aa3d 4f40 741e e8b4 79f2 3e88 53a4  ...=O@t...y.>.S.
  - 01028e0: daae 8864 3f00 5d18 875d 6128 ff6c dce9  ...d?.]..]a(.l..
  - 01028f0: ae58 6d50 cc99 7d13 a495 680d 65ae 60a9  .XmP..}...h.e.`.
  - 0102900: e48d 481a 7a5c 2f1f 8344 ed3d b7be b3ba  ..H.z\/..D.=....
  - 0102910: 8371 a0ae 61b0 f218 369d 8a31 2c32 f62e  .q..a...6..1,2..
  - 0102920: 36c1 e6be e759 f513 f061 7782 131d bde4  6....Y...aw.....
  - 0102930: 899b d797 3ff6 ee1f 5a4e 2c35 a97d ca83  ....?...ZN,5.}..
  - 0102940: a1af dfdf 32f8 8b19 15a5 56f7 20fe a19c  ....2.....V. ...
  - 0102950: e7f2 b24c c2f9 6f14 aa1d 12f9 b331 1b4a  ...L..o......1.J
  - 0102960: b928 8f70 9b94 5910 dd95 b6c1 ecb5 5e43  .(.p..Y.......^C
  - 0102970: f50d e580 c5ed 281a 4ade 5e01 575e e535  ......(.J.^.W^.5
  - 0102980: c4a4 1d67 048b ed14 d5b1 1801 ac7e b7c4  ...g.........~..
  - 0102990: 691d 7e52 d008 be10 22b6 5a9b 7997 25a1  i.~R....".Z.y.%.
  - 01029a0: 0f2f 30b7 b3a7 c91a 815e 1549 61ac b74d  ./0......^.Ia..M
  - 01029b0: d958 f3f8 c21f 6e15 9b4b 4407 8123 c6d7  .X....n..KD..#..
  - 01029c0: ade0 f593 35e6 2411 2bac d33e 9b05 3d59  ....5.$.+..>..=Y
  - 01029d0: 4934 5686 223d 6e1b bc89 dccb 159e fde0  I4V."=n.........
  - 01029e0: 6dc3 1105 82ca f115 63a1 e36f 1118 feb3  m.......c..o....
  - 01029f0: 2469 4137 9b3b 8e11 d19b d27f b559 6386  $iA7.;.......Yc.
  - 0102a00: 0775 3525 c5c5 161c 0ee3 0e33 9114 e9d1  .u5%.......3....
  - 0102a10: d290 f750 379e 7816 0b1c 3f8f da76 ba74  ...P7.x...?..v.t
  - 0102a20: 750d c640 2c18 fa11 78c6 31e5 9024 f7ed  u..@,...x.1..$..
  - 0102a30: bb48 a367 e059 c31c 2d05 5bb7 401d 2c8b  .H.g.Y..-.[.@.,.
  - 0102a40: c9d3 b51f 4dae 0217 2404 7c5f cd7d 566f  ....M...$.|_.}Vo
  - 0102a50: d40f 2be6 708b 6812 066d c698 48c9 f07e  ..+.p.h..m..H..~
  - 0102a60: edb2 113d 4e12 741d 9fbd 9ee0 06a1 c098  ...=N.t.........
  - 0102a70: 57c2 a7fd a40e 9017 e6ca 4b4d d280 0047  W.........KM...G
  - 0102a80: 799b ecca 50a5 d912 a244 7948 1dce 00d8  y...P....DyH....
  - 0102a90: 8ec5 ad44 8108 291e 82d0 2d6d 17d8 3313  ...D..)...-m..3.
  - 0102aa0: 3fd1 579d 9ad3 2018 cea6 2424 7946 f6a8  ?.W... ...$$yF..
  - 0102ab0: 65a7 ac4a 1576 4d13 7da4 3aa0 8e3d bd74  e..J.vM.}.:..=.t
  - 0102ac0: 6fa5 7a77 8856 e21e 6450 95e6 3e31 645d  o.zw.V..dP..>1d]
  - 0102ad0: 8cb7 fbc5 0612 b518 b7a6 aaeb cb8d b64a  ...............J
  - 0102ae0: 702c 96d1 6b0e c413 57a4 aa12 1316 2411  p,..k...W.....$.
  - 0102af0: 1a47 f0e8 1217 a01f dfe9 ee0e dc44 83da  .G...........D..
  - 0102b00: 146c f353 42df 4c19 8021 bfd8 7c9d 02e2  .l.SB.L..!..|...
  - 0102b10: 4323 2943 687f 3d14 3381 327a fd7d 684e  C#)Ch.=.3.2z.}hN
  - 0102b20: 361c 54cf b932 3110 b8ce 5090 95c9 404a  6.T..21...P...@J
  - 0102b30: bdc6 b94b 2951 e819 c60b a7a6 77d4 3308  ...K)Q......w.3.
  - 0102b40: 31d2 c76f 87da b914 6b09 ec1e c676 29a0  1..o....k....v).
  - 0102b50: 8d0e d3bf d2ae 9410 dfdb ac64 a357 4200  ...........d.WB.
  - 0102b60: 4917 b8ff 1d7e 871a 19e3 23ea b5df 01cd  I....~....#.....
  - 0102b70: a012 6099 b131 3915 aeb5 1c88 914c ce70  ..`..19......L.p
  - 0102b80: 4d75 e6ad 278e fa10 e255 94a6 b5ad e31a  Mu..'....U......
  - 0102b90: afbb 7049 0c7d 2a1b e877 4385 c457 e97b  ..pI.}*..wC..W.{
  - 0102ba0: f262 8d07 3d97 bb15 87f9 3504 6a79 87c9  .b..=.....5.jy..
  - 0102bb0: 8eb5 0a06 64df 6211 71c2 bc06 108f a575  ....d.b.q......u
  - 0102bc0: e488 77d6 6c65 d11b 2735 ca6b a6a5 b7f7  ..w.le..'5.k....
  - 0102bd0: e9d3 92ab f01d 4116 1fc4 a1bc 1e1e c65f  ......A........_
  - 0102be0: ee0f 0f56 8db1 cd11 65d3 0261 6463 a3ff  ...V....e..adc..
  - 0102bf0: 16b3 b189 484f 7c1c 51dc 9b4d 501c e932  ....HO|.Q..MP..2
  - 0102c00: df28 8ed4 06d9 c916 0e7d 4971 73e3 208f  .(.......}Iqs. .
  - 0102c10: b220 d876 0514 3b12 7c2e 0f82 8505 9b7e  . .v..;.|......~
  - 0102c20: eacd 59f1 3b53 2b1d cabe a501 9e37 afcb  ..Y.;S+......7..
  - 0102c30: eed7 47f4 2fdc 5517 a198 8434 4bf9 5809  ..G./.U....4K.X.
  - 0102c40: bfac 6cc3 8c16 ab12 0000 0000 0000 0000  ..l.............
  - 0102c50: 0000 0000 0000 0010 0000 0000 0000 0000  ................
  - 0102c60: 0000 0000 0000 0014 0000 0000 0000 0000  ................
  - 0102c70: 0000 0000 0000 0019 0000 0000 0000 0000  ................
  - 0102c80: 0000 0000 0000 401f 0000 0000 0000 0000  ......@.........
  - 0102c90: 0000 0000 0000 8813 0000 0000 0000 0000  ................
  - 0102ca0: 0000 0000 0000 6a18 0000 0000 0000 0000  ......j.........
  - 0102cb0: 0000 0000 0080 841e 0000 0000 0000 0000  ................
  - 0102cc0: 0000 0000 00d0 1213 0000 0000 0000 0000  ................
  - 0102cd0: 0000 0000 0084 d717 0000 0000 0000 0000  ................
  - 0102ce0: 0000 0000 0065 cd1d 0000 0000 0000 0000  .....e..........
  - 0102cf0: 0000 0000 205f a012 0000 0000 0000 0000  .... _..........
  - 0102d00: 0000 0000 e876 4817 0000 0000 0000 0000  .....vH.........
  - 0102d10: 0000 0000 a294 1a1d 0000 0000 0000 0000  ................
  - 0102d20: 0000 0040 e59c 3012 0000 0000 0000 0000  ...@..0.........
  - 0102d30: 0000 0090 1ec4 bc16 0000 0000 0000 0000  ................
  - 0102d40: 0000 0034 26f5 6b1c 0000 0000 0000 0000  ...4&.k.........
  - 0102d50: 0000 80e0 3779 c311 0000 0000 0000 0000  ....7y..........
  - 0102d60: 0000 a0d8 8557 3416 0000 0000 0000 0000  .....W4.........
  - 0102d70: 0000 c84e 676d c11b 0000 0000 0000 0000  ...Ngm..........
  - 0102d80: 0000 3d91 60e4 5811 0000 0000 0000 0000  ..=.`.X.........
  - 0102d90: 0040 8cb5 781d af15 0000 0000 0000 0000  .@..x...........
  - 0102da0: 0050 efe2 d6e4 1a1b 0000 0000 0000 0000  .P..............
  - 0102db0: 0092 d54d 06cf f010 0000 0000 0000 0000  ...M............
  - 0102dc0: 80f6 4ae1 c702 2d15 0000 0000 0000 0000  ..J...-.........
  - 0102dd0: 20b4 9dd9 7943 781a 0000 0000 0000 0000   ...yCx.........
  - 0102de0: 9490 0228 2c2a 8b10 0000 0000 0000 0000  ...(,*..........
  - 0102df0: b934 0332 b7f4 ad14 0000 0000 0000 0040  .4.2...........@
  - 0102e00: e701 84fe e471 d919 0000 0000 0000 0088  .....q..........
  - 0102e10: 3081 121f 2fe7 2710 0000 0000 0000 00aa  0.../.'.........
  - 0102e20: 7c21 d7e6 fae0 3114 0000 0000 0000 80d4  |!....1.........
  - 0102e30: dbe9 8ca0 3959 3e19 0000 0000 0000 a0c9  ....9Y>.........
  - 0102e40: 5224 b008 88ef 8d1f 0000 0000 0000 04be  R$..............
  - 0102e50: b316 6e05 b5b5 b813 0000 0000 0000 85ad  ..n.............
  - 0102e60: 609c c946 22e3 a618 0000 0000 0040 e6d8  `..F"........@..
  - 0102e70: 7803 7cd8 ea9b d01e 0000 0000 00e8 8f87  x.|.............
  - 0102e80: 2b82 4dc7 7261 4213 0000 0000 00e2 7369  +.M.raB.......si
  - 0102e90: b6e2 2079 cff9 1218 0000 0000 80da d003  .. y............
  - 0102ea0: 641b 6957 43b8 171e 0000 0000 9088 6282  d.iWC.........b.
  - 0102eb0: 1eb1 a116 2ad3 ce12 0000 0000 b42a fb22  ....*........*."
  - 0102ec0: 661d 4a9c f487 8217 0000 0000 61f5 b9ab  f.J.........a...
  - 0102ed0: bfa4 5cc3 f129 631d 0000 00a0 5c39 54cb  ..\..)c.....\9T.
  - 0102ee0: f7e6 191a 37fa 5d12 0000 00c8 b347 29be  ....7.]......G).
  - 0102ef0: b560 a0e0 c478 f516 0000 00ba a099 b32d  .`...x.........-
  - 0102f00: e378 c818 f6d6 b21c 0000 4074 0440 90fc  .x........@t.@..
  - 0102f10: 8d4b 7dcf 59c6 ef11 0000 5091 0550 b47b  .K}.Y.....P..P.{
  - 0102f20: 719e 5c43 f0b7 6b16 0000 a4f5 0664 a1da  q.\C..k......d..
  - 0102f30: 0dc6 3354 eca5 061c 0080 8659 84de a4a8  ..3T.......Y....
  - 0102f40: c85b a0b4 b327 8411 0020 e86f 2516 ced2  .[...'... .o%...
  - 0102f50: ba72 c8a1 a031 e515 0028 e2cb ae9b 8187  .r...1...(......
  - 0102f60: 698f 3aca 087e 5e1b 0059 6d3f 4d01 b1f4  i.:..~^..Ym?M...
  - 0102f70: a199 647e c50e 1b11 40af 488f a041 dd71  ..d~....@.H..A.q
  - 0102f80: 0ac0 fddd 76d2 6115 10db 1ab3 0892 540e  ....v.a.......T.
  - 0102f90: 0d30 7d95 1447 ba1a eac8 f06f 45db f428  .0}..G.....oE..(
  - 0102fa0: 083e 6edd 6c6c b410 24fb eccb 1612 3233  .>n.ll..$.....23
  - 0102fb0: 8acd c914 8887 e114 ed39 e87e 9c96 febf  .........9.~....
  - 0102fc0: ec40 fc19 6ae9 191a 3424 51cf 211e fff7  .@..j...4$Q.!...
  - 0102fd0: 93a8 3d50 e231 5010 416d 2543 aae5 fef5  ..=P.1P.Am%C....
  - 0102fe0: b812 4de4 5a3e 6414 92c8 eed3 149f 7e33  ..M.Z>d.......~3
  - 0102ff0: 6757 609d f14d 7d19 b67a ea08 da46 5e00  gW`..M}..z...F^.
  - 0103000: 416d b804 6ea1 dc1f b28c 9245 48ec 3aa0  Am..n......EH.:.
  - 0103010: 4844 f3c2 e4e4 e913 de2f f756 5aa7 49c8  HD......./.VZ.I.
  - 0103020: 5a15 b0f3 1d5e e418 d6fb b4ec 3011 5c7a  Z....^......0.\z
  - 0103030: b11a 9c70 a575 1d1f 651d f193 be8a 79ec  ...p.u..e.....y.
  - 0103040: ae90 6166 8769 7213 bf64 ed38 6eed 97a7  ..af.ir..d.8n...
  - 0103050: daf4 f93f e903 4f18 efbd 28c7 c9e8 7d51  ...?..O...(...}Q
  - 0103060: 1172 f88f e3c4 621e b576 791c 7eb1 eed2  .r....b..vy.~...
  - 0103070: 4a47 fb39 0ebb fd12 62d4 97a3 dd5d aa87  JG.9....b....]..
  - 0103080: 1d19 7ac8 d129 bd17 7bc9 7d0c 55f5 94e9  ..z..)..{.}.U...
  - 0103090: 649f 983a 4674 ac1d ed9d ce27 5519 fd11  d..:Ft.....'U...
  - 01030a0: 9f63 9fe4 abc8 8b12 6845 c271 aa5f 7cd6  .c......hE.q._|.
  - 01030b0: 863c c7dd d6ba 2e17 c2d6 320e 9577 1b8c  .<........2..w..
  - 01030c0: a80b 3995 8c69 fa1c 39c6 df28 bd2a 9157  ..9..i..9..(.*.W
  - 01030d0: 49a7 43dd f781 1c12 c8b7 1773 6c75 75ad  I.C........sluu.
  - 01030e0: 1b91 94d4 75a2 a316 baa5 dd8f c7d2 d298  ....u...........
  - 01030f0: 62b5 b949 138b 4c1c 9487 eab9 bcc3 839f  b..I..L.........
  - 0103100: 5d11 140e ecd6 af11 7929 65e8 abb4 6407  ].......y)e...d.
  - 0103110: b515 9911 a7cc 1b16 d773 7ee2 d6e1 3d49  .........s~...=I
  - 0103120: 225b ffd5 d0bf a21b 6608 8f4d 26ad c66d  "[......f..M&..m
  - 0103130: f598 bf85 e2b7 4511 80ca f2e0 6f58 38c9  ......E.....oX8.
  - 0103140: 327f 2f27 db25 9715 207d 2fd9 8b6e 867b  2./'.%.. }/..n.{
  - 0103150: ff5e fbf0 51ef fc1a 34ae bd67 1705 34ad  .^..Q...4..g..4.
  - 0103160: 5f1b 9d36 9315 de10 c119 ad41 5d06 8198  _..6.......A]...
  - 0103170: 3762 4404 f89a 1515 3260 1892 f447 a17e  7bD.....2`...G.~
  - 0103180: c57a 5505 b601 5b1a 1f3c 4fdb f8cc 246f  .zU...[..<O...$o
  - 0103190: bb6c 55c3 11e1 7810 270b 2312 3700 ee4a  .lU...x.'.#.7..J
  - 01031a0: eac7 2a34 5619 9714 f0cd abd6 4480 a9dd  ..*4V.......D...
  - 01031b0: e479 35c1 abdf bc19 b660 2b06 2bf0 890a  .y5......`+.+...
  - 01031c0: 2f6c c158 cb0b 1610 e438 b6c7 356c 2ccd  /l.X.....8..5l,.
  - 01031d0: 3ac7 f12e be8e 1b14 1dc7 a339 4387 7780  :..........9C.w.
  - 01031e0: 0939 aeba 6d72 2219 e4b8 0c08 1469 95e0  .9..mr"......i..
  - 01031f0: 4bc7 5929 090f 6b1f 8ef3 0785 ac61 5d6c  K.Y)..k......a]l
  - 0103200: 8f1c d8b9 65e9 a213 72f0 49a6 17ba 7447  ....e...r.I...tG
  - 0103210: b323 4e28 bfa3 8b18 8f6c dc8f 9de8 5119  .#N(.....l....Q.
  - 0103220: a0ac 61f2 ae8c ae1e d9c3 e979 6231 d30f  ..a........yb1..
  - 0103230: e40b 7d57 ed17 2d13 cf34 6418 bbfd c713  ..}W..-..4d.....
  - 0103240: dd4e 5cad e85d f817 0342 7dde 29fd b958  .N\..]...B}.)..X
  - 0103250: 9462 b3d8 6275 f61d 4249 0e2b 3a3e 74b7  .b..bu..BI.+:>t.
  - 0103260: 9c1d 70c7 5d09 ba12 92db d1b5 c84d 51e5  ..p.]........MQ.
  - 0103270: 0325 4c39 b58b 6817 7752 46e3 3aa1 a5de  .%L9..h.wRF.:...
  - 0103280: 442e 9f87 a2ae 421d 8af3 0bce c484 270b  D.....B.......'.
  - 0103290: eb7c c394 25ad 4912 6df0 8e01 f665 f1cd  .|..%.I.m....e..
  - 01032a0: 255c f4f9 6e18 dc16 88ac f281 73bf 6d41  %\..n.......s.mA
  - 01032b0: 2f73 71b8 8a1e 931c d5ab 3731 a897 e488  /sq.......71....
  - 01032c0: fde7 46b3 16f3 db11 ca96 853d 92bd 1deb  ..F........=....
  - 01032d0: fca1 1860 dcef 5216 7dfc e6cc f62c e525  ...`..R.}....,.%
  - 01032e0: 7cca 1e78 d3ab e71b ce5d 1040 1a3c af97  |..x.....].@.<..
  - 01032f0: 8d3e 132b 64cb 7011 4275 14d0 200b 9bfd  .>.+d.p.Bu.. ...
  - 0103300: 300e d835 3dfe cc15 9292 1904 e9cd 013d  0..5=..........=
  - 0103310: bd11 4e83 cc3d 401b 9bfb 8fa2 b120 2146  ..N..=@...... !F
  - 0103320: 16cb 10d2 9f26 0811 82fa 330b de68 a9d7  .....&....3..h..
  - 0103330: dbfd 94c6 4730 4a15 23f9 008e 15c3 93cd  ....G0J.#.......
  - 0103340: 523d 3ab8 59bc 9c1a b69b c078 ed59 7cc0  R=:.Y......x.Y|.
  - 0103350: 5366 2413 b8f5 a110 a3c2 f0d6 6870 9bb0  Sf$.........hp..
  - 0103360: e87f ed17 2673 ca14 4cf3 ac0c 834c c2dc  ....&s..L....L..
  - 0103370: e2df e89d ef0f fd19 0f18 ece7 d16f f9c9  .............o..
  - 0103380: ed8b b1c2 f529 3e10 131e e761 c6cb 773c  .....)>....a..w<
  - 0103390: e9ee 5d33 73b4 4d14 98e5 60fa b7be 958b  ..]3s.M...`.....
  - 01033a0: a36a 3500 9021 6119 fe1e f9f8 652e 7b6e  .j5..!a.....e.{n
  - 01033b0: 4cc5 4200 f469 b91f 5fb3 9bbb fffc 0cc5  L.B..i.._.......
  - 01033c0: 4fbb 2980 38e2 d313 37a0 82aa 3f3c 50b6  O.).8...7...?<P.
  - 01033d0: 232a 34a0 c6da c818 4448 2395 4f4b e4a3  #*4.....DH#.OK..
  - 01033e0: ac34 4148 7811 fb1e 2b0d 36bd 11af 6ee6  .4AHx...+.6...n.
  - 01033f0: ebc0 282d ebea 5c13 7590 832c d65a 0ae0  ..(-..\.u..,.Z..
  - 0103400: 26f1 72f8 a525 3418 9374 a4b7 8bf1 0c98  &.r..%4..t......
  - 0103410: 70ad 8f76 0f2f 411e dcc8 c652 f716 085f  p..v./A....R..._
  - 0103420: 66cc 19aa 69bd e812 137b 7827 b51c caf6  f...i....{x'....
  - 0103430: 7f3f a014 c4ec a217 d799 5671 e2a3 7cf4  .?........Vq..|.
  - 0103440: 5f4f c819 f5a7 8b1d 2620 d686 6de6 cdf8  _O......& ..m...
  - 0103450: 9b31 1d30 f948 7712 30a8 8be8 0860 01f7  .1.0.Hw.0....`..
  - 0103460: 027e 247c 371b 1517 3c92 ae22 0bb8 c1b4  .~$|7...<.."....
  - 0103470: 839d 2d5b 0562 da1c 651b adf5 0613 f950  ..-[.b..e......P
  - 0103480: 7282 fc58 437d 0812 3f62 18b3 c857 37e5  r..XC}..?b...W7.
  - 0103490: 0ea3 3b2f 949c 8a16 cf7a dedf ba2d 859e  ..;/.....z...-..
  - 01034a0: d28b 0a3b b943 2d1c c10c ebcb 943c 13a3  ...;.C-......<..
  - 01034b0: 6397 e6c4 534a 9c11 f1cf e5fe b90b d88b  c...SJ..........
  - 01034c0: 3c3d 20b6 e85c 0316 ee43 9f7e a80e ceae  <= ..\...C.~....
  - 01034d0: 8b4c a8e3 2234 841b 758a 234f 29c9 404d  .L.."4..u.#O).@M
  - 01034e0: d72f 49ce 95a0 3211 126d eca2 73fb 9020  ./I...2..m..s..
  - 01034f0: cd7b db41 bb48 7f15 5688 a78b 503a b568  .{.A.H..V...P:.h
  - 0103500: c05a 5212 ea1a df1a 36b5 4857 7244 7141  .ZR.....6.HWrDqA
  - 0103510: b878 734b d270 cb10 83e2 1aed 8e95 cd51  .xsK.p.........Q
  - 0103520: e656 50de 064d fe14 249b 61a8 f2fa 40e6  .VP..M..$.a...@.
  - 0103530: 9f6c e495 48e0 3d1a f700 3da9 d79c e8ef  .l..H.=...=.....
  - 0103540: e3c3 ae5d 2dac 6610 3441 8c93 0dc4 e2eb  ...]-.f.4A......
  - 0103550: dc74 1ab5 3857 8014 8151 6ff8 1075 db26  .t..8W...Qo..u.&
  - 0103560: 1412 61e2 066d a019 f192 459b 2a29 4998  ..a..m....E.*)I.
  - 0103570: 4cab 7c4d 2444 0410 adf7 1642 7573 5bbe  L.|M$D.....Bus[.
  - 0103580: 1fd6 db60 2d55 0514 98b5 9c92 5250 f2ad  ...`-U......RP..
  - 0103590: a7cb 12b9 78aa 0619 ffe2 4337 67e4 6e99  ....x.....C7g.n.
  - 01035a0: 917e 57e7 1655 481f df6d 8a82 c04e e5ff  .~W..UH..m...N..
  - 01035b0: 1aaf 9650 2e35 8d13 5709 2da3 70a2 debf  ...P.5..W.-.p...
  - 01035c0: e15a bce4 7982 7018 ad4b f8cb 0c4b d62f  .Z..y.p..K...K./
  - 01035d0: 9a71 eb5d 18a3 8c1e 4c2f 7bff e7ee e55d  .q.]....L/{....]
  - 01035e0: 0027 b33a efe5 1713 1ffb 59ff a16a 5f75  .'.:......Y..j_u
  - 01035f0: c0f0 5f09 6bdf dd17 e779 307f 4a45 b792  .._.k....y0.JE..
  - 0103600: f0ec b7cb 4557 d51d 304c 7e8f 4e8b b25b  ....EW..0L~.N..[
  - 0103610: 16f4 529f 8b56 a512 3cdf 5d33 222e 9ff2  ..R..V..<.]3"...
  - 0103620: 1bb1 2787 2eac 4e17 0b57 35c0 aaf9 46ef  ..'...N..W5...F.
  - 0103630: 629d f128 3a57 221d 6756 21b8 0a5c 8cd5  b..(:W".gV!..\..
  - 0103640: 5d02 9759 8476 3512 01ac 2966 0d73 ef4a  ]..Y.v5...)f.s.J
  - 0103650: f5c2 fc6f 25d4 c216 0117 b4bf d04f ab9d  ...o%........O..
  - 0103660: b2f3 fbcb 2e89 731c 608e d077 e211 8ba2  ......s.`..w....
  - 0103670: 4f78 7d3f bd35 c811 f9b1 c415 5bd6 2d8b  Ox}?.5......[.-.
  - 0103680: 63d6 5c8f 2c43 3a16 77de 35db f14b f96d  c.\.,C:.w.5..K.m
  - 0103690: fc0b 34b3 f7d3 c81b 0aab 0129 77cf bbc4  ..4........)w...
  - 01036a0: 7d87 00d0 7a84 5d11 cd15 42f3 54c3 ea35  }...z.]...B.T..5
  - 01036b0: 5da9 0084 99e5 b415 409b 1230 2a74 6583  ].......@..0*te.
  - 01036c0: b4d3 00e5 ff1e 221b 08a1 0b5e 9a68 1fd2  ......"....^.h..
  - 01036d0: 5084 20ef 5f53 f510 4a89 8ef5 c042 a706  P. ._S..J....B..
  - 01036e0: 65a5 e8ea 37a8 3215 9d2b f232 7113 5148  e...7.2..+.2q.QH
  - 01036f0: bece a2e5 4552 7f1a 425b d7bf 26ac 32ed  ....ER..B[..&.2.
  - 0103700: 36c1 85af 6b93 8f10 1232 cd6f 3057 7fa8  6...k....2.o0W..
  - 0103710: 8431 679b 4678 b314 977e c08b fc2c 9fd2  .1g.Fx...~...,..
  - 0103720: e5fd 4042 5856 e019 1e4f 58d7 1d7c a3a3  ..@BXV...OX..|..
  - 0103730: af9e 6829 f735 2c10 e662 2e4d 255b 8c8c  ..h).5,..b.M%[..
  - 0103740: 5bc6 c2f3 7443 3714 9ffb 79a0 ee71 af6f  [...tC7...y..q.o
  - 0103750: f277 b330 5214 4519 877a 9848 6a4e 9b0b  .w.0R.E..z.HjN..
  - 0103760: ef55 e0bc 6659 961f 944c 5f6d 0211 4167  .U..fY...L_m..Ag
  - 0103770: b535 0c36 e0f7 bd13 ba1f b708 4355 11c1  .5.6........CU..
  - 0103780: 2243 8f43 d875 ad18 a8e7 e4ca 93aa 5571  "C.C.u........Uq
  - 0103790: eb13 7354 4ed3 d81e c910 cf5e 9c8a d526  ..sTN......^...&
  - 01037a0: 73ec c7f4 1084 4713 fbd4 8276 43ed 8af0  s.....G....vC...
  - 01037b0: 8fe7 f931 1565 1918 3a8a 2354 94a8 adec  ...1.e..:.#T....
  - 01037c0: 7361 787e 5abe 1f1e 6436 96b4 5c89 ec73  sax~Z...d6..\..s
  - 01037d0: e83c 0b8f f8d6 d312 fdc3 bbe1 b3ab e790  .<..............
  - 01037e0: 220c ceb2 b6cc 8817 fdb4 2ada a096 2135  ".........*...!5
  - 01037f0: 2b8f 815f e4ff 6a1d 1eb1 5a88 24fe 3401  +.._..j...Z.$.4.
  - 0103800: 7bf9 b0bb eedf 6212 655d 71aa ad3d 82c1  {.....b.e]q..=..
  - 0103810: d937 9d6a ea97 fb16 bfb4 0d15 19cd e231  .7.j...........1
  - 0103820: d085 4405 e57d ba1c f790 28ad 2fc0 2d1f  ..D..}....(./.-.
  - 0103830: a2d3 4a23 af8e f411 35b5 7298 3b30 f9a6  ..J#....5.r.;0..
  - 0103840: 8a88 1dec 5ab2 7116 8262 8f7e 4a7c b750  ....Z.q..b.~J|.P
  - 0103850: adea 24a7 f11e 0e1c 919d 198f aead 7252  ..$...........rR
  - 0103860: ac12 7708 57d3 8811 f604 e032 1a59 0f67  ..w.W......2.Y.g
  - 0103870: 57d7 94ca 2c08 eb15 3306 98bf 602f d340  W...,...3...`/.@
  - 0103880: 2d0d 3afd 37ca 651b e003 bf77 9cfd 8348  -.:.7.e....w...H
  - 0103890: 3c48 44fe 629e 1f11 d8c4 ae95 03fd a45a  <HD.b..........Z
  - 01038a0: 4b5a d5bd fb85 6715 0e76 1a7b 443c 4e31  KZ....g..v.{D<N1
  - 01038b0: deb0 4aad 7a67 c11a c989 f0cc aae5 d0de  ..J.zg..........
  - 01038c0: 8aae 4eac ace0 b810 3bac 2c80 151f 8596  ..N.....;.,.....
  - 01038d0: 2d5a 62d7 d718 e714 4ad7 37e0 da66 26fc  -Zb.....J.7..f&.
  - 01038e0: b8f0 3acd 0ddf 201a 8ee6 22cc 4800 989d  ..:... ...".H...
  - 01038f0: 73d6 44a0 688b 5410 32a0 2bff 5a00 fe84  s.D.h.T.2.+.Z...
  - 0103900: 100c 56c8 42ae 6914 3e88 f6be 7180 3da6  ..V.B.i.>...q.=.
  - 0103910: 148f 6b7a d319 8419 4e2a b42e 8ee0 cccf  ..kz....N*......
  - 0103920: d972 0659 4820 e51f 709a 30dd 580c e021  .r.YH ..p.0.X..!
  - 0103930: c807 a437 2d34 ef13 0dc1 7c14 6f0f 582a  ...7-4....|.o.X*
  - 0103940: ba09 8d85 3801 eb18 50f1 9bd9 4a13 eeb4  ....8...P...J...
  - 0103950: 284c f0a6 86c1 251f d276 01c8 0ecc 1471  (L....%..v.....q
  - 0103960: 992f 5628 f498 7713 86d4 017a 12ff 59cd  ./V(..w....z..Y.
  - 0103970: 7fbb 6b32 317f 5518 a849 8218 d77e b0c0  ..k21.U..I...~..
  - 0103980: 5faa 067f fdde 6a1e 096e 516f 464f 6ed8  _.....j..nQoFOn.
  - 0103990: 7b2a 646f 5ecb 0213 8bc9 250b 18e3 89ce  {*do^.....%.....
  - 01039a0: 1a35 3d0b 367e c317 ee3b ef0d de5b 2c82  .5=.6~...;...[,.
  - 01039b0: 6182 0c8e c35d b41d 7585 b5c8 6ab9 5bf1  a....]..u...j.[.
  - 01039c0: 7cd1 c738 9aba 9012 d2e6 e27a c5a7 b22d  |..8.......z...-
  - 01039d0: dcc5 f9c6 40e9 3417 86a0 9bd9 b651 1f39  ....@.4......Q.9
  - 01039e0: 5337 b8f8 9023 021d 5444 0148 1293 b303  S7...#..TD.H....
  - 01039f0: 9422 739b 3a56 2112 6995 01da d677 a004  ."s.:V!.i....w..
  - 0103a00: 39eb 4f42 c9ab a916 c3fa 8190 cc95 c845  9.OB...........E
  - 0103a10: 07e6 e392 bb16 541c ba3c 51da 9f5d 9d8b  ......T..<Q..]..
  - 0103a20: c46f ce3b 358e b411 e88b e5d0 07b5 84ae  .o.;5...........
  - 0103a30: b50b c28a c2b1 2116 e3ee 1ec5 49e2 251a  ......!.....I.%.
  - 0103a40: a38e 722d 331e aa1b 4d55 331b 6ead 57f0  ..r-3...MU3.n.W.
  - 0103a50: 2599 67fc df52 4a11 a12a 00a2 c998 6d6c  %.g..RJ..*....ml
  - 0103a60: 6f7f 81fb 97e7 9c15 4935 800a fcfe 8847  o.......I5.....G
  - 0103a70: 4bdf 61fa 7d21 041b 4e21 9086 5d9f b50c  K.a.}!..N!..]...
  - 0103a80: 8f2b 7dbc ee94 e210 a129 34e8 3407 e3cf  .+}......)4.4...
  - 0103a90: 7276 9c6b 2a3a 1b15 0a34 4122 02c9 db83  rv.k*:...4A"....
  - 0103aa0: 0f94 8306 b508 621a 86c0 6855 a15d 69b2  ......b...hU.]i.
  - 0103ab0: 893c 1224 7145 7d10 a7f0 c2aa 09b5 031f  .<.$qE}.........
  - 0103ac0: accb 166d cd96 9c14 d1ac 7315 4ca2 c426  ...m......s.L..&
  - 0103ad0: 977e 5cc8 80bc c319 034c 688d 6fe5 3a78  .~\......Lh.o.:x
  - 0103ae0: 1ecf 397d d055 1a10 035f c270 cb9e 4916  ..9}.U..._.p..I.
  - 0103af0: e642 889c 44eb 2014 c4f6 f24c 7e06 dc9b  .B..D. ....L~...
  - 0103b00: 9f53 aac3 1526 2919 76b4 2fe0 1d08 d382  .S...&).v./.....
  - 0103b10: 87e8 9434 9b6f 731f c9d0 1dac 12e5 c3b1  ...4.os.........
  - 0103b20: 5411 dd00 c125 a813 fc44 2557 57de 34de  T....%...D%WW.4.
  - 0103b30: a955 1441 312f 9218 3b96 ee2c ed15 c255  .U.A1/..;..,...U
  - 0103b40: 146b 5991 fdba b61e e51d 153c b44d 99b5  .kY........<.M..
  - 0103b50: ece2 d77a de34 3213 5e65 1a4b 21a1 ffe2  ...z.42.^e.K!...
  - 0103b60: a7db 8d19 16c2 fe17 b6fe e09d 6989 bfdb  ............i...
  - 0103b70: 9152 f19f 9b72 fe1d 319f ac02 e2b5 5729  .R...r..1.....W)
  - 0103b80: 9bd3 f643 a107 bf12 fec6 5783 5aa3 adf3  ...C......W.Z...
  - 0103b90: 8188 f494 89c9 6e17 bdb8 2d24 310c 9970  ......n...-$1..p
  - 0103ba0: a2aa 31fa eb7b 4a1d 7693 9cb6 9ea7 5f86  ..1..{J.v....._.
  - 0103bb0: a50a 5f7c 738d 4e12 54b8 4364 8691 f7e7  .._|s.N.T.Cd....
  - 0103bc0: 4ecd 765b d030 e216 69a6 54fd e775 f5a1  N.v[.0..i.T..u..
  - 0103bd0: a280 5472 04bd 9a1c 01e8 54fe b069 39a5  ..Tr......T..i9.
  - 0103be0: 65d0 74c7 22b6 e011 0222 ea3d 1dc4 870e  e.t."....".=....
  - 0103bf0: 7f04 5279 abe3 5816 82aa 648d 24b5 29d2  ..Ry..X...d.$.).
  - 0103c00: 9e85 a657 961c ef1b 91ea 5ed8 3611 5a43  ...W......^.6.ZC
  - 0103c10: 8313 c8f6 dd71 7511 36a5 768e 8495 3014  .....qu.6.v...0.
  - 0103c20: 6418 7a74 55ce d215 834e 14b2 e5ba 3c19  d.ztU....N....<.
  - 0103c30: 7d9e 98d1 ea81 471b 12b1 4c8f cff4 c52f  }.....G...L..../
  - 0103c40: 0e63 ffc2 32b1 0c11 56dd 1f73 0372 b7bb  .c..2...V..s.r..
  - 0103c50: d13b bf73 7fdd 4f15 acd4 e74f 844e a52a  .;.s..O....O.N.*
  - 0103c60: c60a af50 dfd4 a31a ebe4 f0b1 1251 a7da  ...P.........Q..
  - 0103c70: bb66 6d92 0b65 a610 261e 6d5e 5725 51d1  .fm..e..&.m^W%Q.
  - 0103c80: 6ac0 0877 4efe cf14 b065 0836 ad6e a585  j..wN....e.6.n..
  - 0103c90: 85f0 ca14 e2fd 031a 8e3f c541 2c65 8773  .........?.A,e.s
  - 0103ca0: 53d6 fe4c ad7e 4210 718f 3652 773e 6950  S..L.~B.q.6Rw>iP
  - 0103cb0: e88b 3ea0 581e 5314 4e33 c426 158e 8364  ..>.X.S.N3.&...d
  - 0103cc0: e22e 4ec8 eee5 6719 2240 7570 9a71 a4fd  ..N...g."@up.q..
  - 0103cd0: 9aba 617a 6adf c11f 1548 4986 00c7 86de  ..azj....HI.....
  - 0103ce0: a014 7d8c a22b d913 1a9a dba7 c078 2816  ..}..+.......x(.
  - 0103cf0: c959 9c2f 8b76 cf18 a180 d2d1 f096 b25b  .Y./.v.........[
  - 0103d00: 3b70 83fb 2d54 031f 6490 2383 569e 4f19  ;p..-T..d.#.V.O.
  - 0103d10: 2526 32bd 9c14 6213 7e74 ec23 ec85 a35f  %&2...b.~t.#..._
  - 0103d20: aeaf 7eec c399 3a18 9d91 e72c 6767 8cf7  ..~...:....,gg..
  - 0103d30: 995b 9ee7 3440 491e 02bb 107c a0c0 b73a  .[..4@I....|...:
  - 0103d40: 40f9 c210 21c8 ed12 c3e9 149b c8b0 6549  @...!.........eI
  - 0103d50: 90b7 f354 293a a917 3324 dac1 fa1c bf5b  ...T):..3$.....[
  - 0103d60: 74a5 30aa b388 931d a056 28b9 1c72 57b9  t.0......V(..rW.
  - 0103d70: 6867 5e4a 7035 7c12 486c 72e7 a34e ade7  hg^Jp5|.Hlr..N..
  - 0103d80: 4201 f65c cc42 1b17 5a07 4fe1 4ca2 98a1  B..\.B..Z.O.L...
  - 0103d90: 9381 3374 7f13 e21c 9864 d10c 7065 ff44  ..3t.....d..pe.D
  - 0103da0: fc30 a0a8 2f4c 0d12 bebd 0510 cc3e 3f56  .0../L.......>?V
  - 0103db0: 3b3d c892 3b9f 9016 2e2d 0714 7f0e cf2b  ;=..;....-.....+
  - 0103dc0: 8a4c 7a77 0ac7 341c 3d7c 846c 0f69 615b  .Lzw..4.=|.l.ia[
  - 0103dd0: d66f ac8a 66fc a011 4c9b a547 53c3 39f2  .o..f...L..GS.9.
  - 0103de0: cb8b 572d 803b 0916 1f02 8f19 2834 c8ee  ..W-.;......(4..
  - 0103df0: be6e ad38 608a 8b1b 5361 f90f 9920 3d55  .n.8`...Sa... =U
  - 0103e00: 3765 6c23 7c36 3711 a8b9 f753 bf68 8c2a  7el#|67....S.h.*
  - 0103e10: 857e 472c 1b04 8515 12a8 f528 ef82 2f75  .~G,.......(../u
  - 0103e20: 265e 59f7 2145 e61a 0b89 9979 d5b1 3d09  &^Y.!E.....y..=.
  - 0103e30: d8da 973a 35eb cf10 4eeb ffd7 4a1e 8d0b  ...:5...N...J...
  - 0103e40: 8ed1 3d89 02e6 0315 22e6 ff8d dd65 708e  ..=....."....ep.
  - 0103e50: f145 8d2b 83df 441a d5ef bf78 aa3f 06f9  .E.+..D....x.?..
  - 0103e60: b64b 38fb b10b 6b10 caeb ef16 95cf 47b7  .K8...k.......G.
  - 0103e70: a45e 067a 9ece 8514 bde6 ab5c 7ac3 19e5  .^.z.......\z...
  - 0103e80: 4df6 8718 4642 a719 3670 eb79 2c1a 30af  M...FB..6p.y,.0.
  - 0103e90: f0f9 54cf 6b89 0810 434c 6698 b720 fcda  ..T.k...CLf.. ..
  - 0103ea0: 6c38 2ac3 c6ab 0a14 54df 7f7e e528 bb11  l8*.....T..~.(..
  - 0103eb0: 88c6 f473 b856 0d19 2ad7 1fde 1ef3 2916  ...s.V..*.....).
  - 0103ec0: 2af8 f190 66ac 501f 7ae6 d34a f337 da4d  *...f.P.z..J.7.M
  - 0103ed0: 1a3b 971a c06b 9213 19e0 881d f0c5 50e1  .;...k........P.
  - 0103ee0: e009 3d21 b006 7718 1f18 eb24 6cf7 a419  ..=!..w....$l...
  - 0103ef0: 594c 8c29 5cc8 941e 13ef 1297 a31a 07b0  YL.)\...........
  - 0103f00: b7af f799 39fd 1c13 d8aa d77c 4ce1 089c  ....9......|L...
  - 0103f10: a59b 7500 883c e417 8e95 0d9c 9f19 0b03  ..u..<..........
  - 0103f20: 8f02 9300 aa4b dd1d 797d 88c1 03f0 e661  .....K..y}.....a
  - 0103f30: 99e1 5b40 4a4f aa12 d79c eab1 04ac 60ba  ..[@JO........`.
  - 0103f40: ffd9 72d0 1ce3 5417 0d44 65de 05d7 f8a8  ..r...T..De.....
  - 0103f50: 7f90 8f04 e41b 2a1d 884a ffaa 6386 9bc9  ......*..J..c...
  - 0103f60: 4fba d982 6e51 3a12 2a1d bf95 fc67 02bc  O...nQ:.*....g..
  - 0103f70: e328 9023 cae5 c816 74e4 2ebb fb01 03ab  .(.#....t.......
  - 0103f80: 1c33 74ac 3c1f 7b1c c94e fd54 3de1 e1ea  .3t.<.{..N.T=...
  - 0103f90: f19f c8eb 85f3 cc11 7ba2 3caa 8c59 9a65  ........{.<..Y.e
  - 0103fa0: eec7 ba66 6730 4016 1acb cbd4 efef 00ff  ...fg0@.........
  - 0103fb0: e979 6940 813c d01b f05e ffe4 f595 603f  .yi@.<...^....`?
  - 0103fc0: 32ec 41c8 d025 6211 ac36 3f5e 73bb 38cf  2.A..%b..6?^s.8.
  - 0103fd0: 3e67 52fa 44af ba15 5704 cf35 50ea 0683  >gR.D...W..5P...
  - 0103fe0: 0e01 e738 165b 291b b662 a121 7252 e411  ...8.[)..b.!rR..
  - 0103ff0: a960 90e3 edd8 f910 64bb 09aa 0e67 5d56  .`......d....g]V
  - 0104000: d378 745c 294f 3815 3d2a 8c54 d2c0 f42b  .xt\)O8.=*.T...+
  - 0104010: 0897 91b3 f362 861a 669a d774 83f8 781b  .....b..f..t..x.
  - 0104020: 65fe 3a50 d8fd 9310 0081 0d52 a436 5762  e.:P.......R.6Wb
  - 0104030: febd 4964 4efd b814 40e1 9066 4d04 edfa  ..IdN...@..fM...
  - 0104040: 7d2d 5cfd a13c e719 c88c 1a60 b022 d4bc  }-\..<.....`."..
  - 0104050: 6e9c 593e e585 3010 fa2f 2178 5c2b 096c  n.Y>..0../!x\+.l
  - 0104060: 8a03 f08d 5ea7 3c14 f87b 2996 3376 0b07  ....^.<..{).3v..
  - 0104070: 6d04 6c31 36d1 4b19 f6da b37b c053 ce48  m.l16.K....{.S.H
  - 0104080: 8805 c7bd 83c5 9e1f da68 504d 58f4 802d  .........hPMX..-
  - 0104090: 7563 9c56 723b c313 1083 a460 6e31 e178  uc.Vr;.....`n1.x
  - 01040a0: 527c 43ec 4e0a b418 3030 3031 3032 3033  R|C.N...00010203
  - 01040b0: 3034 3035 3036 3037 3038 3039 3130 3131  0405060708091011
  - 01040c0: 3132 3133 3134 3135 3136 3137 3138 3139  1213141516171819
  - 01040d0: 3230 3231 3232 3233 3234 3235 3236 3237  2021222324252627
  - 01040e0: 3238 3239 3330 3331 3332 3333 3334 3335  2829303132333435
  - 01040f0: 3336 3337 3338 3339 3430 3431 3432 3433  3637383940414243
  - 0104100: 3434 3435 3436 3437 3438 3439 3530 3531  4445464748495051
  - 0104110: 3532 3533 3534 3535 3536 3537 3538 3539  5253545556575859
  - 0104120: 3630 3631 3632 3633 3634 3635 3636 3637  6061626364656667
  - 0104130: 3638 3639 3730 3731 3732 3733 3734 3735  6869707172737475
  - 0104140: 3736 3737 3738 3739 3830 3831 3832 3833  7677787980818283
  - 0104150: 3834 3835 3836 3837 3838 3839 3930 3931  8485868788899091
  - 0104160: 3932 3933 3934 3935 3936 3937 3938 3939  9293949596979899
  - 0104170: 302e 3000 4c00 0000 0800 0000 0400 0000  0.0.L...........
  - 0104180: 4d00 0000 4e00 0000 4f00 0000 626f 6f6c  M...N...O...bool
  - 0104190: 6561 6e20 6060 0000 8c41 1000 0900 0000  ean ``...A......
  - 01041a0: 9541 1000 0100 0000 696e 7465 6765 7220  .A......integer
  - 01041b0: 6000 0000 a841 1000 0900 0000 9541 1000  `....A.......A..
  - 01041c0: 0100 0000 666c 6f61 7469 6e67 2070 6f69  ....floating poi
  - 01041d0: 6e74 2060 c441 1000 1000 0000 9541 1000  nt `.A.......A..
  - 01041e0: 0100 0000 6368 6172 6163 7465 7220 6000  ....character `.
  - 01041f0: e441 1000 0b00 0000 9541 1000 0100 0000  .A.......A......
  - 0104200: 7374 7269 6e67 2000 0042 1000 0700 0000  string ..B......
  - 0104210: 6279 7465 2061 7272 6179 756e 6974 2076  byte arrayunit v
  - 0104220: 616c 7565 4f70 7469 6f6e 2076 616c 7565  alueOption value
  - 0104230: 6e65 7774 7970 6520 7374 7275 6374 7365  newtype structse
  - 0104240: 7175 656e 6365 6d61 7065 6e75 6d75 6e69  quencemapenumuni
  - 0104250: 7420 7661 7269 616e 746e 6577 7479 7065  t variantnewtype
  - 0104260: 2076 6172 6961 6e74 7475 706c 6520 7661   varianttuple va
  - 0104270: 7269 616e 7473 7472 7563 7420 7661 7269  riantstruct vari
  - 0104280: 616e 7400 0100 0000 0000 0000 2e30 6936  ant..........0i6
  - 0104290: 342f 7275 7374 632f 3132 3966 3362 3939  4/rustc/129f3b99
  - 01042a0: 3634 6166 3464 3461 3730 3964 3133 3833  64af4d4a709d1383
  - 01042b0: 3933 3061 6465 3132 6466 6537 6330 3831  930ade12dfe7c081
  - 01042c0: 2f6c 6962 7261 7279 2f63 6f72 652f 7372  /library/core/sr
  - 01042d0: 632f 736c 6963 652f 696e 6465 782e 7273  c/slice/index.rs
  - 01042e0: 9142 1000 4f00 0000 c102 0000 3400 0000  .B..O.......4...
  - 01042f0: 9142 1000 4f00 0000 c802 0000 3200 0000  .B..O.......2...
  - 0104300: 6173 7365 7274 696f 6e20 6661 696c 6564  assertion failed
  - 0104310: 3a20 7365 6c66 2e69 735f 6368 6172 5f62  : self.is_char_b
  - 0104320: 6f75 6e64 6172 7928 6e29 2f72 7573 7463  oundary(n)/rustc
  - 0104330: 2f31 3239 6633 6239 3936 3461 6634 6434  /129f3b9964af4d4
  - 0104340: 6137 3039 6431 3338 3339 3330 6164 6531  a709d1383930ade1
  - 0104350: 3264 6665 3763 3038 312f 6c69 6272 6172  2dfe7c081/librar
  - 0104360: 792f 616c 6c6f 632f 7372 632f 7374 7269  y/alloc/src/stri
  - 0104370: 6e67 2e72 7300 0000 2a43 1000 4b00 0000  ng.rs...*C..K...
  - 0104380: 8307 0000 1d00 0000 2a43 1000 4b00 0000  ........*C..K...
  - 0104390: 8b07 0000 1d00 0000 5000 0000 0c00 0000  ........P.......
  - 01043a0: 0400 0000 5100 0000 5200 0000 5300 0000  ....Q...R...S...
  - 01043b0: 5600 0000 0c00 0000 0400 0000 5700 0000  V...........W...
  - 01043c0: 5800 0000 5300 0000 6120 4469 7370 6c61  X...S...a Displa
  - 01043d0: 7920 696d 706c 656d 656e 7461 7469 6f6e  y implementation
  - 01043e0: 2072 6574 7572 6e65 6420 616e 2065 7272   returned an err
  - 01043f0: 6f72 2075 6e65 7870 6563 7465 646c 7900  or unexpectedly.
  - 0104400: 5900 0000 0000 0000 0100 0000 5a00 0000  Y...........Z...
  - 0104410: 2f72 7573 7463 2f31 3239 6633 6239 3936  /rustc/129f3b996
  - 0104420: 3461 6634 6434 6137 3039 6431 3338 3339  4af4d4a709d13839
  - 0104430: 3330 6164 6531 3264 6665 3763 3038 312f  30ade12dfe7c081/
  - 0104440: 6c69 6272 6172 792f 616c 6c6f 632f 7372  library/alloc/sr
  - 0104450: 632f 7374 7269 6e67 2e72 7300 1044 1000  c/string.rs..D..
  - 0104460: 4b00 0000 ff09 0000 0e00 0000 4572 726f  K...........Erro
  - 0104470: 7261 7373 6572 7469 6f6e 2066 6169 6c65  rassertion faile
  - 0104480: 643a 2073 656c 662e 6973 5f63 6861 725f  d: self.is_char_
  - 0104490: 626f 756e 6461 7279 286e 6577 5f6c 656e  boundary(new_len
  - 01044a0: 2900 0000 1044 1000 4b00 0000 8005 0000  )....D..K.......
  - 01044b0: 0d00 0000 5b00 0000 1000 0000 0400 0000  ....[...........
  - 01044c0: 5c00 0000 5d00 0000 5e00 0000 6261 636b  \...]...^...back
  - 01044d0: 7472 6163 6520 6361 7074 7572 6520 6661  trace capture fa
  - 01044e0: 696c 6564 2f68 6f6d 652f 6564 7561 7264  iled/home/eduard
  - 01044f0: 6f70 696f 7269 6e69 2f2e 6361 7267 6f2f  opiorini/.cargo/
  - 0104500: 7265 6769 7374 7279 2f73 7263 2f69 6e64  registry/src/ind
  - 0104510: 6578 2e63 7261 7465 732e 696f 2d36 6631  ex.crates.io-6f1
  - 0104520: 3764 3232 6262 6131 3530 3031 662f 616e  7d22bba15001f/an
  - 0104530: 7968 6f77 2d31 2e30 2e38 362f 7372 632f  yhow-1.0.86/src/
  - 0104540: 6572 726f 722e 7273 e444 1000 6400 0000  error.rs.D..d...
  - 0104550: ab03 0000 0e00 0000 0100 0000 0000 0000  ................
  - 0104560: 0a0a 4361 7573 6564 2062 793a 0a0a 0a73  ..Caused by:...s
  - 0104570: 7461 636b 2062 6163 6b74 7261 6365 3a53  tack backtrace:S
  - 0104580: 7461 636b 2062 6163 6b74 7261 6365 3a0a  tack backtrace:.
  - 0104590: 7f45 1000 1100 0000 5300 0000 5f00 0000  .E......S..._...
  - 01045a0: 1000 0000 0400 0000 5c00 0000 5d00 0000  ........\...]...
  - 01045b0: 5e00 0000 2020 2020 3a20 0000 0100 0000  ^...    : ......
  - 01045c0: 0000 0000 b845 1000 0200 0000 2020 2020  .....E......
  - 01045d0: 2020 202f 7275 7374 632f 3132 3966 3362     /rustc/129f3b
  - 01045e0: 3939 3634 6166 3464 3461 3730 3964 3133  9964af4d4a709d13
  - 01045f0: 3833 3933 3061 6465 3132 6466 6537 6330  83930ade12dfe7c0
  - 0104600: 3831 2f6c 6962 7261 7279 2f61 6c6c 6f63  81/library/alloc
  - 0104610: 2f73 7263 2f76 6563 2f6d 6f64 2e72 7300  /src/vec/mod.rs.
  - 0104620: d345 1000 4c00 0000 9508 0000 2400 0000  .E..L.......$...
  - 0104630: 0000 0000 6600 0000 0400 0000 0400 0000  ....f...........
  - 0104640: 6700 0000 6800 0000 0c00 0000 0400 0000  g...h...........
  - 0104650: 6900 0000 6a00 0000 6b00 0000 2f72 7573  i...j...k.../rus
  - 0104660: 742f 6465 7073 2f64 6c6d 616c 6c6f 632d  t/deps/dlmalloc-
  - 0104670: 302e 322e 362f 7372 632f 646c 6d61 6c6c  0.2.6/src/dlmall
  - 0104680: 6f63 2e72 7361 7373 6572 7469 6f6e 2066  oc.rsassertion f
  - 0104690: 6169 6c65 643a 2070 7369 7a65 203e 3d20  ailed: psize >=
  - 01046a0: 7369 7a65 202b 206d 696e 5f6f 7665 7268  size + min_overh
  - 01046b0: 6561 6400 5c46 1000 2900 0000 a804 0000  ead.\F..).......
  - 01046c0: 0900 0000 6173 7365 7274 696f 6e20 6661  ....assertion fa
  - 01046d0: 696c 6564 3a20 7073 697a 6520 3c3d 2073  iled: psize <= s
  - 01046e0: 697a 6520 2b20 6d61 785f 6f76 6572 6865  ize + max_overhe
  - 01046f0: 6164 0000 5c46 1000 2900 0000 ae04 0000  ad..\F..).......
  - 0104700: 0d00 0000 6c69 6272 6172 792f 7374 642f  ....library/std/
  - 0104710: 7372 632f 7379 6e63 2f6c 617a 795f 6c6f  src/sync/lazy_lo
  - 0104720: 636b 2e72 7300 0000 0447 1000 2100 0000  ck.rs....G..!...
  - 0104730: a000 0000 1300 0000 6c69 6272 6172 792f  ........library/
  - 0104740: 7374 642f 7372 632f 6261 636b 7472 6163  std/src/backtrac
  - 0104750: 652e 7273 6f70 6572 6174 696f 6e20 6e6f  e.rsoperation no
  - 0104760: 7420 7375 7070 6f72 7465 6420 6f6e 2074  t supported on t
  - 0104770: 6869 7320 706c 6174 666f 726d 5447 1000  his platformTG..
  - 0104780: 2800 0000 2400 0000 0200 0000 7c47 1000  (...$.......|G..
  - 0104790: 756e 7375 7070 6f72 7465 6420 6261 636b  unsupported back
  - 01047a0: 7472 6163 6564 6973 6162 6c65 6420 6261  tracedisabled ba
  - 01047b0: 636b 7472 6163 6500 3847 1000 1c00 0000  cktrace.8G......
  - 01047c0: 8a01 0000 1d00 0000 6c00 0000 1000 0000  ........l.......
  - 01047d0: 0400 0000 6d00 0000 6e00 0000 0100 0000  ....m...n.......
  - 01047e0: 0000 0000 656e 7469 7479 206e 6f74 2066  ....entity not f
  - 01047f0: 6f75 6e64 7065 726d 6973 7369 6f6e 2064  oundpermission d
  - 0104800: 656e 6965 6463 6f6e 6e65 6374 696f 6e20  eniedconnection
  - 0104810: 7265 6675 7365 6463 6f6e 6e65 6374 696f  refusedconnectio
  - 0104820: 6e20 7265 7365 7468 6f73 7420 756e 7265  n resethost unre
  - 0104830: 6163 6861 626c 656e 6574 776f 726b 2075  achablenetwork u
  - 0104840: 6e72 6561 6368 6162 6c65 636f 6e6e 6563  nreachableconnec
  - 0104850: 7469 6f6e 2061 626f 7274 6564 6e6f 7420  tion abortednot
  - 0104860: 636f 6e6e 6563 7465 6461 6464 7265 7373  connectedaddress
  - 0104870: 2069 6e20 7573 6561 6464 7265 7373 206e   in useaddress n
  - 0104880: 6f74 2061 7661 696c 6162 6c65 6e65 7477  ot availablenetw
  - 0104890: 6f72 6b20 646f 776e 6272 6f6b 656e 2070  ork downbroken p
  - 01048a0: 6970 6565 6e74 6974 7920 616c 7265 6164  ipeentity alread
  - 01048b0: 7920 6578 6973 7473 6f70 6572 6174 696f  y existsoperatio
  - 01048c0: 6e20 776f 756c 6420 626c 6f63 6b6e 6f74  n would blocknot
  - 01048d0: 2061 2064 6972 6563 746f 7279 6973 2061   a directoryis a
  - 01048e0: 2064 6972 6563 746f 7279 6469 7265 6374   directorydirect
  - 01048f0: 6f72 7920 6e6f 7420 656d 7074 7972 6561  ory not emptyrea
  - 0104900: 642d 6f6e 6c79 2066 696c 6573 7973 7465  d-only filesyste
  - 0104910: 6d20 6f72 2073 746f 7261 6765 206d 6564  m or storage med
  - 0104920: 6975 6d66 696c 6573 7973 7465 6d20 6c6f  iumfilesystem lo
  - 0104930: 6f70 206f 7220 696e 6469 7265 6374 696f  op or indirectio
  - 0104940: 6e20 6c69 6d69 7420 2865 2e67 2e20 7379  n limit (e.g. sy
  - 0104950: 6d6c 696e 6b20 6c6f 6f70 2973 7461 6c65  mlink loop)stale
  - 0104960: 206e 6574 776f 726b 2066 696c 6520 6861   network file ha
  - 0104970: 6e64 6c65 696e 7661 6c69 6420 696e 7075  ndleinvalid inpu
  - 0104980: 7420 7061 7261 6d65 7465 7269 6e76 616c  t parameterinval
  - 0104990: 6964 2064 6174 6174 696d 6564 206f 7574  id datatimed out
  - 01049a0: 7772 6974 6520 7a65 726f 6e6f 2073 746f  write zerono sto
  - 01049b0: 7261 6765 2073 7061 6365 7365 656b 206f  rage spaceseek o
  - 01049c0: 6e20 756e 7365 656b 6162 6c65 2066 696c  n unseekable fil
  - 01049d0: 6566 696c 6573 7973 7465 6d20 7175 6f74  efilesystem quot
  - 01049e0: 6120 6578 6365 6564 6564 6669 6c65 2074  a exceededfile t
  - 01049f0: 6f6f 206c 6172 6765 7265 736f 7572 6365  oo largeresource
  - 0104a00: 2062 7573 7965 7865 6375 7461 626c 6520   busyexecutable
  - 0104a10: 6669 6c65 2062 7573 7964 6561 646c 6f63  file busydeadloc
  - 0104a20: 6b63 726f 7373 2d64 6576 6963 6520 6c69  kcross-device li
  - 0104a30: 6e6b 206f 7220 7265 6e61 6d65 746f 6f20  nk or renametoo
  - 0104a40: 6d61 6e79 206c 696e 6b73 696e 7661 6c69  many linksinvali
  - 0104a50: 6420 6669 6c65 6e61 6d65 6172 6775 6d65  d filenameargume
  - 0104a60: 6e74 206c 6973 7420 746f 6f20 6c6f 6e67  nt list too long
  - 0104a70: 6f70 6572 6174 696f 6e20 696e 7465 7272  operation interr
  - 0104a80: 7570 7465 6475 6e73 7570 706f 7274 6564  uptedunsupported
  - 0104a90: 756e 6578 7065 6374 6564 2065 6e64 206f  unexpected end o
  - 0104aa0: 6620 6669 6c65 6f75 7420 6f66 206d 656d  f fileout of mem
  - 0104ab0: 6f72 796f 7468 6572 2065 7272 6f72 756e  oryother errorun
  - 0104ac0: 6361 7465 676f 7269 7a65 6420 6572 726f  categorized erro
  - 0104ad0: 7220 286f 7320 6572 726f 7220 2900 0000  r (os error )...
  - 0104ae0: 0100 0000 0000 0000 d14a 1000 0b00 0000  .........J......
  - 0104af0: dc4a 1000 0100 0000 3a20 6361 6e6e 6f74  .J......: cannot
  - 0104b00: 2072 6563 7572 7369 7665 6c79 2061 6371   recursively acq
  - 0104b10: 7569 7265 206d 7574 6578 0000 fa4a 1000  uire mutex...J..
  - 0104b20: 2000 0000 6c69 6272 6172 792f 7374 642f   ...library/std/
  - 0104b30: 7372 632f 7379 732f 7379 6e63 2f6d 7574  src/sys/sync/mut
  - 0104b40: 6578 2f6e 6f5f 7468 7265 6164 732e 7273  ex/no_threads.rs
  - 0104b50: 244b 1000 2c00 0000 1400 0000 0900 0000  $K..,...........
  - 0104b60: 6c69 6272 6172 792f 7374 642f 7372 632f  library/std/src/
  - 0104b70: 7379 6e63 2f6f 6e63 652e 7273 604b 1000  sync/once.rs`K..
  - 0104b80: 1c00 0000 9500 0000 3200 0000 3c75 6e6b  ........2...<unk
  - 0104b90: 6e6f 776e 3eef bfbd 6d65 6d6f 7279 2061  nown>...memory a
  - 0104ba0: 6c6c 6f63 6174 696f 6e20 6f66 2020 6279  llocation of  by
  - 0104bb0: 7465 7320 6661 696c 6564 0000 984b 1000  tes failed...K..
  - 0104bc0: 1500 0000 ad4b 1000 0d00 0000 6c69 6272  .....K......libr
  - 0104bd0: 6172 792f 7374 642f 7372 632f 616c 6c6f  ary/std/src/allo
  - 0104be0: 632e 7273 cc4b 1000 1800 0000 6201 0000  c.rs.K......b...
  - 0104bf0: 0900 0000 6c69 6272 6172 792f 7374 642f  ....library/std/
  - 0104c00: 7372 632f 7061 6e69 636b 696e 672e 7273  src/panicking.rs
  - 0104c10: 0a00 0000 f44b 1000 1c00 0000 8b02 0000  .....K..........
  - 0104c20: 1e00 0000 6800 0000 0c00 0000 0400 0000  ....h...........
  - 0104c30: 6f00 0000 6600 0000 0800 0000 0400 0000  o...f...........
  - 0104c40: 7000 0000 6600 0000 0800 0000 0400 0000  p...f...........
  - 0104c50: 7100 0000 7200 0000 7300 0000 1000 0000  q...r...s.......
  - 0104c60: 0400 0000 7400 0000 7500 0000 7600 0000  ....t...u...v...
  - 0104c70: 0000 0000 0100 0000 7700 0000 6c69 6272  ........w...libr
  - 0104c80: 6172 792f 7374 642f 7372 632f 2e2e 2f2e  ary/std/src/../.
  - 0104c90: 2e2f 6261 636b 7472 6163 652f 7372 632f  ./backtrace/src/
  - 0104ca0: 7379 6d62 6f6c 697a 652f 6d6f 642e 7273  symbolize/mod.rs
  - 0104cb0: 7c4c 1000 3400 0000 7601 0000 3000 0000  |L..4...v...0...
  - 0104cc0: 0100 0000 0000 0000 f84a 1000 0200 0000  .........J......
  - 0104cd0: 202d 2000 0100 0000 0000 0000 d04c 1000   - ..........L..
  - 0104ce0: 0300 0000 2020 2020 2020 2020 2020 2020  ....
  - 0104cf0: 2020 2020 2020 2061 7420 3a00 fa4c 1000         at :..L..
  - 0104d00: 0100 0000 6f70 6572 6174 696f 6e20 7375  ....operation su
  - 0104d10: 6363 6573 7366 756c 4f6e 6365 2069 6e73  ccessfulOnce ins
  - 0104d20: 7461 6e63 6520 6861 7320 7072 6576 696f  tance has previo
  - 0104d30: 7573 6c79 2062 6565 6e20 706f 6973 6f6e  usly been poison
  - 0104d40: 6564 0000 184d 1000 2a00 0000 6f6e 652d  ed...M..*...one-
  - 0104d50: 7469 6d65 2069 6e69 7469 616c 697a 6174  time initializat
  - 0104d60: 696f 6e20 6d61 7920 6e6f 7420 6265 2070  ion may not be p
  - 0104d70: 6572 666f 726d 6564 2072 6563 7572 7369  erformed recursi
  - 0104d80: 7665 6c79 4c4d 1000 3800 0000 1000 0000  velyLM..8.......
  - 0104d90: 1100 0000 1200 0000 1000 0000 1000 0000  ................
  - 0104da0: 1300 0000 1200 0000 0d00 0000 0e00 0000  ................
  - 0104db0: 1500 0000 0c00 0000 0b00 0000 1500 0000  ................
  - 0104dc0: 1500 0000 0f00 0000 0e00 0000 1300 0000  ................
  - 0104dd0: 2600 0000 3800 0000 1900 0000 1700 0000  &...8...........
  - 0104de0: 0c00 0000 0900 0000 0a00 0000 1000 0000  ................
  - 0104df0: 1700 0000 1900 0000 0e00 0000 0d00 0000  ................
  - 0104e00: 1400 0000 0800 0000 1b00 0000 0e00 0000  ................
  - 0104e10: 1000 0000 1600 0000 1500 0000 0b00 0000  ................
  - 0104e20: 1600 0000 0d00 0000 0b00 0000 1300 0000  ................
  - 0104e30: e447 1000 f447 1000 0548 1000 1748 1000  .G...G...H...H..
  - 0104e40: 2748 1000 3748 1000 4a48 1000 5c48 1000  'H..7H..JH..\H..
  - 0104e50: 6948 1000 7748 1000 8c48 1000 9848 1000  iH..wH...H...H..
  - 0104e60: a348 1000 b848 1000 cd48 1000 dc48 1000  .H...H...H...H..
  - 0104e70: ea48 1000 fd48 1000 2349 1000 5b49 1000  .H...H..#I..[I..
  - 0104e80: 7449 1000 8b49 1000 9749 1000 a049 1000  tI...I...I...I..
  - 0104e90: aa49 1000 ba49 1000 d149 1000 ea49 1000  .I...I...I...I..
  - 0104ea0: f849 1000 054a 1000 194a 1000 214a 1000  .I...J...J..!J..
  - 0104eb0: 3c4a 1000 4a4a 1000 5a4a 1000 704a 1000  <J..JJ..ZJ..pJ..
  - 0104ec0: 854a 1000 904a 1000 a64a 1000 b34a 1000  .J...J...J...J..
  - 0104ed0: be4a 1000 2829 0000 7b00 0000 0400 0000  .J..()..{.......
  - 0104ee0: 0400 0000 7c00 0000 2f72 7573 7463 2f31  ....|.../rustc/1
  - 0104ef0: 3239 6633 6239 3936 3461 6634 6434 6137  29f3b9964af4d4a7
  - 0104f00: 3039 6431 3338 3339 3330 6164 6531 3264  09d1383930ade12d
  - 0104f10: 6665 3763 3038 312f 6c69 6272 6172 792f  fe7c081/library/
  - 0104f20: 636f 7265 2f73 7263 2f6f 7073 2f66 756e  core/src/ops/fun
  - 0104f30: 6374 696f 6e2e 7273 e84e 1000 5000 0000  ction.rs.N..P...
  - 0104f40: a600 0000 0500 0000 2f72 7573 7463 2f31  ......../rustc/1
  - 0104f50: 3239 6633 6239 3936 3461 6634 6434 6137  29f3b9964af4d4a7
  - 0104f60: 3039 6431 3338 3339 3330 6164 6531 3264  09d1383930ade12d
  - 0104f70: 6665 3763 3038 312f 6c69 6272 6172 792f  fe7c081/library/
  - 0104f80: 636f 7265 2f73 7263 2f73 7472 2f70 6174  core/src/str/pat
  - 0104f90: 7465 726e 2e72 7300 484f 1000 4f00 0000  tern.rs.HO..O...
  - 0104fa0: c305 0000 1400 0000 484f 1000 4f00 0000  ........HO..O...
  - 0104fb0: c305 0000 2100 0000 484f 1000 4f00 0000  ....!...HO..O...
  - 0104fc0: b705 0000 2100 0000 2f72 7573 7463 2f31  ....!.../rustc/1
  - 0104fd0: 3239 6633 6239 3936 3461 6634 6434 6137  29f3b9964af4d4a7
  - 0104fe0: 3039 6431 3338 3339 3330 6164 6531 3264  09d1383930ade12d
  - 0104ff0: 6665 3763 3038 312f 6c69 6272 6172 792f  fe7c081/library/
  - 0105000: 636f 7265 2f73 7263 2f65 7363 6170 652e  core/src/escape.
  - 0105010: 7273 0000 c84f 1000 4a00 0000 6600 0000  rs...O..J...f...
  - 0105020: 2300 0000 6361 6c6c 6564 2060 5265 7375  #...called `Resu
  - 0105030: 6c74 3a3a 756e 7772 6170 2829 6020 6f6e  lt::unwrap()` on
  - 0105040: 2061 6e20 6045 7272 6020 7661 6c75 6500   an `Err` value.
  - 0105050: 7d00 0000 0000 0000 0100 0000 7e00 0000  }...........~...
  - 0105060: 4572 726f 7245 6d70 7479 496e 7661 6c69  ErrorEmptyInvali
  - 0105070: 6444 6967 6974 506f 734f 7665 7266 6c6f  dDigitPosOverflo
  - 0105080: 774e 6567 4f76 6572 666c 6f77 5a65 726f  wNegOverflowZero
  - 0105090: 5061 7273 6549 6e74 4572 726f 726b 696e  ParseIntErrorkin
  - 01050a0: 6400 0000 7b00 0000 0400 0000 0400 0000  d...{...........
  - 01050b0: 7f00 0000 7b00 0000 0c00 0000 0400 0000  ....{...........
  - 01050c0: 8000 0000 8100 0000 8200 0000 484f 1000  ............HO..
  - 01050d0: 4f00 0000 4704 0000 2400 0000 484f 1000  O...G...$...HO..
  - 01050e0: 4f00 0000 bf01 0000 3700 0000 5f5a 4e2f  O.......7..._ZN/
  - 01050f0: 7275 7374 2f64 6570 732f 7275 7374 632d  rust/deps/rustc-
  - 0105100: 6465 6d61 6e67 6c65 2d30 2e31 2e32 332f  demangle-0.1.23/
  - 0105110: 7372 632f 6c65 6761 6379 2e72 7300 0000  src/legacy.rs...
  - 0105120: ef50 1000 2e00 0000 3d00 0000 0b00 0000  .P......=.......
  - 0105130: ef50 1000 2e00 0000 3a00 0000 0b00 0000  .P......:.......
  - 0105140: ef50 1000 2e00 0000 3600 0000 0b00 0000  .P......6.......
  - 0105150: ef50 1000 2e00 0000 6600 0000 1c00 0000  .P......f.......
  - 0105160: ef50 1000 2e00 0000 6f00 0000 2700 0000  .P......o...'...
  - 0105170: ef50 1000 2e00 0000 7000 0000 1d00 0000  .P......p.......
  - 0105180: ef50 1000 2e00 0000 7200 0000 2100 0000  .P......r...!...
  - 0105190: ef50 1000 2e00 0000 7300 0000 1a00 0000  .P......s.......
  - 01051a0: ef50 1000 2e00 0000 7400 0000 1900 0000  .P......t.......
  - 01051b0: 3a3a 0000 ef50 1000 2e00 0000 7e00 0000  ::...P......~...
  - 01051c0: 1d00 0000 ef50 1000 2e00 0000 b400 0000  .....P..........
  - 01051d0: 2600 0000 ef50 1000 2e00 0000 b500 0000  &....P..........
  - 01051e0: 2100 0000 ef50 1000 2e00 0000 8a00 0000  !....P..........
  - 01051f0: 4900 0000 ef50 1000 2e00 0000 8b00 0000  I....P..........
  - 0105200: 1f00 0000 ef50 1000 2e00 0000 8b00 0000  .....P..........
  - 0105210: 2f00 0000 4300 0000 ef50 1000 2e00 0000  /...C....P......
  - 0105220: 9d00 0000 3500 0000 2c29 283e 3c26 2a40  ....5...,)(><&*@
  - 0105230: ef50 1000 2e00 0000 8200 0000 2c00 0000  .P..........,...
  - 0105240: ef50 1000 2e00 0000 8400 0000 2500 0000  .P..........%...
  - 0105250: 2e00 0000 ef50 1000 2e00 0000 8700 0000  .....P..........
  - 0105260: 2500 0000 8300 0000 0100 0000 0100 0000  %...............
  - 0105270: 8400 0000 ef50 1000 2e00 0000 7200 0000  .....P......r...
  - 0105280: 4800 0000 5f5f 522f 7275 7374 2f64 6570  H...__R/rust/dep
  - 0105290: 732f 7275 7374 632d 6465 6d61 6e67 6c65  s/rustc-demangle
  - 01052a0: 2d30 2e31 2e32 332f 7372 632f 7630 2e72  -0.1.23/src/v0.r
  - 01052b0: 7300 0000 8752 1000 2a00 0000 3200 0000  s....R..*...2...
  - 01052c0: 1300 0000 8752 1000 2a00 0000 2f00 0000  .....R..*.../...
  - 01052d0: 1300 0000 8752 1000 2a00 0000 2b00 0000  .....R..*...+...
  - 01052e0: 1300 0000 8752 1000 2a00 0000 5a00 0000  .....R..*...Z...
  - 01052f0: 2800 0000 6066 6d74 3a3a 4572 726f 7260  (...`fmt::Error`
  - 0105300: 7320 7368 6f75 6c64 2062 6520 696d 706f  s should be impo
  - 0105310: 7373 6962 6c65 2077 6974 686f 7574 2061  ssible without a
  - 0105320: 2060 666d 743a 3a46 6f72 6d61 7474 6572   `fmt::Formatter
  - 0105330: 6000 0000 7d00 0000 0000 0000 0100 0000  `...}...........
  - 0105340: 8500 0000 8752 1000 2a00 0000 4b00 0000  .....R..*...K...
  - 0105350: 0e00 0000 8752 1000 2a00 0000 8f00 0000  .....R..*.......
  - 0105360: 1800 0000 8752 1000 2a00 0000 8a00 0000  .....R..*.......
  - 0105370: 0d00 0000 7075 6e79 636f 6465 7b2d 7d30  ....punycode{-}0
  - 0105380: 8752 1000 2a00 0000 1e01 0000 3100 0000  .R..*.......1...
  - 0105390: 696e 7465 726e 616c 2065 7272 6f72 3a20  internal error:
  - 01053a0: 656e 7465 7265 6420 756e 7265 6163 6861  entered unreacha
  - 01053b0: 626c 6520 636f 6465 8752 1000 2a00 0000  ble code.R..*...
  - 01053c0: 3101 0000 1600 0000 8752 1000 2a00 0000  1........R..*...
  - 01053d0: 3401 0000 4700 0000 696e 7465 726e 616c  4...G...internal
  - 01053e0: 2065 7272 6f72 3a20 656e 7465 7265 6420   error: entered
  - 01053f0: 756e 7265 6163 6861 626c 6520 636f 6465  unreachable code
  - 0105400: 3a20 7374 723a 3a66 726f 6d5f 7574 6638  : str::from_utf8
  - 0105410: 2829 203d 2020 7761 7320 6578 7065 6374  () =  was expect
  - 0105420: 6564 2074 6f20 6861 7665 2031 2063 6861  ed to have 1 cha
  - 0105430: 722c 2062 7574 2020 6368 6172 7320 7765  r, but  chars we
  - 0105440: 7265 2066 6f75 6e64 d853 1000 3900 0000  re found.S..9...
  - 0105450: 1154 1000 0400 0000 1554 1000 2200 0000  .T.......T.."...
  - 0105460: 3754 1000 1100 0000 8752 1000 2a00 0000  7T.......R..*...
  - 0105470: 5c01 0000 1a00 0000 626f 6f6c 6368 6172  \.......boolchar
  - 0105480: 7374 7269 3869 3136 6933 3269 3634 6931  stri8i16i32i64i1
  - 0105490: 3238 6973 697a 6575 3875 3136 7533 3275  28isizeu8u16u32u
  - 01054a0: 3634 7531 3238 7573 697a 6566 3332 6636  64u128usizef32f6
  - 01054b0: 3421 5f2e 2e2e 0000 8752 1000 2a00 0000  4!_......R..*...
  - 01054c0: bf01 0000 1f00 0000 8752 1000 2a00 0000  .........R..*...
  - 01054d0: 1e02 0000 1e00 0000 8752 1000 2a00 0000  .........R..*...
  - 01054e0: 2302 0000 2200 0000 8752 1000 2a00 0000  #..."....R..*...
  - 01054f0: 2402 0000 2500 0000 8752 1000 2a00 0000  $...%....R..*...
  - 0105500: 8702 0000 1100 0000 7b69 6e76 616c 6964  ........{invalid
  - 0105510: 2073 796e 7461 787d 7b72 6563 7572 7369   syntax}{recursi
  - 0105520: 6f6e 206c 696d 6974 2072 6561 6368 6564  on limit reached
  - 0105530: 7d3f 2766 6f72 3c3e 202c 205b 5d3a 3a7b  }?'for<> , []::{
  - 0105540: 636c 6f73 7572 6573 6869 6d3a 2320 6173  closureshim:# as
  - 0105550: 2020 6d75 7420 636f 6e73 7420 3b20 6479    mut const ; dy
  - 0105560: 6e20 202b 2075 6e73 6166 6520 6578 7465  n  + unsafe exte
  - 0105570: 726e 2022 8752 1000 2a00 0000 d403 0000  rn ".R..*.......
  - 0105580: 2d00 0000 2220 666e 2820 2d3e 2020 3d20  -..." fn( ->  =
  - 0105590: 6661 6c73 6574 7275 657b 207b 2020 7d3a  falsetrue{ {  }:
  - 01055a0: 2030 7800 8752 1000 2a00 0000 ca04 0000   0x..R..*.......
  - 01055b0: 2d00 0000 2e6c 6c76 6d2e 2f72 7573 742f  -....llvm./rust/
  - 01055c0: 6465 7073 2f72 7573 7463 2d64 656d 616e  deps/rustc-deman
  - 01055d0: 676c 652d 302e 312e 3233 2f73 7263 2f6c  gle-0.1.23/src/l
  - 01055e0: 6962 2e72 7300 0000 ba55 1000 2b00 0000  ib.rs....U..+...
  - 01055f0: 6200 0000 1b00 0000 ba55 1000 2b00 0000  b........U..+...
  - 0105600: 6900 0000 1300 0000 0100 0000 0000 0000  i...............
  - 0105610: 7b73 697a 6520 6c69 6d69 7420 7265 6163  {size limit reac
  - 0105620: 6865 647d 6066 6d74 3a3a 4572 726f 7260  hed}`fmt::Error`
  - 0105630: 2066 726f 6d20 6053 697a 654c 696d 6974   from `SizeLimit
  - 0105640: 6564 466d 7441 6461 7074 6572 6020 7761  edFmtAdapter` wa
  - 0105650: 7320 6469 7363 6172 6465 6400 7d00 0000  s discarded.}...
  - 0105660: 0000 0000 0100 0000 8600 0000 ba55 1000  .............U..
  - 0105670: 2b00 0000 5301 0000 1e00 0000 5369 7a65  +...S.......Size
  - 0105680: 4c69 6d69 7445 7868 6175 7374 6564 0000  LimitExhausted..
  - 0105690: 0500 0000 0c00 0000 0b00 0000 0b00 0000  ................
  - 01056a0: 0400 0000 6550 1000 6a50 1000 7650 1000  ....eP..jP..vP..
  - 01056b0: 8150 1000 8c50 1000 0200 0000 0400 0000  .P...P..........
  - 01056c0: 0400 0000 0300 0000 0300 0000 0300 0000  ................
  - 01056d0: 0400 0000 0200 0000 0500 0000 0500 0000  ................
  - 01056e0: 0400 0000 0300 0000 0300 0000 0400 0000  ................
  - 01056f0: 0400 0000 0100 0000 0400 0000 0400 0000  ................
  - 0105700: 0300 0000 0300 0000 0200 0000 0300 0000  ................
  - 0105710: 0400 0000 0300 0000 0300 0000 0100 0000  ................
  - 0105720: 8354 1000 7854 1000 7c54 1000 ae54 1000  .T..xT..|T...T..
  - 0105730: 8054 1000 ab54 1000 7854 1000 9754 1000  .T...T..xT...T..
  - 0105740: 9254 1000 a654 1000 7854 1000 8854 1000  .T...T..xT...T..
  - 0105750: 9c54 1000 8e54 1000 a254 1000 b254 1000  .T...T...T...T..
  - 0105760: 7854 1000 7854 1000 8554 1000 9954 1000  xT..xT...T...T..
  - 0105770: d44e 1000 b354 1000 7854 1000 8b54 1000  .N...T..xT...T..
  - 0105780: 9f54 1000 b154 1000 4572 726f 7200 0000  .T...T..Error...
  - 0105790: 8700 0000 0c00 0000 0400 0000 8800 0000  ................
  - 01057a0: 8900 0000 8a00 0000 6361 7061 6369 7479  ........capacity
  - 01057b0: 206f 7665 7266 6c6f 7700 0000 a857 1000   overflow....W..
  - 01057c0: 1100 0000 6c69 6272 6172 792f 616c 6c6f  ....library/allo
  - 01057d0: 632f 7372 632f 7261 775f 7665 632e 7273  c/src/raw_vec.rs
  - 01057e0: c457 1000 1c00 0000 1900 0000 0500 0000  .W..............
  - 01057f0: 6120 666f 726d 6174 7469 6e67 2074 7261  a formatting tra
  - 0105800: 6974 2069 6d70 6c65 6d65 6e74 6174 696f  it implementatio
  - 0105810: 6e20 7265 7475 726e 6564 2061 6e20 6572  n returned an er
  - 0105820: 726f 7200 8b00 0000 0000 0000 0100 0000  ror.............
  - 0105830: 8c00 0000 6c69 6272 6172 792f 616c 6c6f  ....library/allo
  - 0105840: 632f 7372 632f 666d 742e 7273 3458 1000  c/src/fmt.rs4X..
  - 0105850: 1800 0000 7902 0000 2000 0000 6173 7365  ....y... ...asse
  - 0105860: 7274 696f 6e20 6661 696c 6564 3a20 6564  rtion failed: ed
  - 0105870: 656c 7461 203e 3d20 306c 6962 7261 7279  elta >= 0library
  - 0105880: 2f63 6f72 652f 7372 632f 6e75 6d2f 6469  /core/src/num/di
  - 0105890: 795f 666c 6f61 742e 7273 0000 7958 1000  y_float.rs..yX..
  - 01058a0: 2100 0000 4c00 0000 0900 0000 7958 1000  !...L.......yX..
  - 01058b0: 2100 0000 4e00 0000 0900 0000 0200 0000  !...N...........
  - 01058c0: 1400 0000 c800 0000 d007 0000 204e 0000  ............ N..
  - 01058d0: 400d 0300 8084 1e00 002d 3101 00c2 eb0b  @........-1.....
  - 01058e0: 0094 3577 0000 c16f f286 2300 0000 0000  ..5w...o..#.....
  - 01058f0: 81ef ac85 5b41 6d2d ee04 0000 0000 0000  ....[Am-........
  - 0105900: 0000 0000 011f 6abf 64ed 386e ed97 a7da  ......j.d.8n....
  - 0105910: f4f9 3fe9 034f 1800 0000 0000 0000 0000  ..?..O..........
  - 0105920: 0000 0000 0000 0000 013e 952e 0999 df03  .........>......
  - 0105930: fd38 150f 2fe4 7423 ecf5 cfd3 08dc 04c4  .8../.t#........
  - 0105940: dab0 cdbc 197f 33a6 0326 1fe9 4e02 0000  ......3..&..N...
  - 0105950: 0000 0000 0000 0000 0000 0000 0000 0000  ................
  - 0105960: 0000 0000 0000 0000 0000 0000 0000 0000  ................
  - 0105970: 017c 2e98 5b87 d3be 729f d9d8 872f 1512  .|..[...r..../..
  - 0105980: c650 de6b 706e 4acf 0fd8 95d5 6e71 b226  .P.kpnJ.....nq.&
  - 0105990: b066 c6ad 2436 151d 5ad3 423c 0e54 ff63  .f..$6..Z.B<.T.c
  - 01059a0: c073 55cc 17ef f965 f228 bc55 f7c7 dc80  .sU....e.(.U....
  - 01059b0: dced 6ef4 ceef dc5f f753 0500 6c69 6272  ..n...._.S..libr
  - 01059c0: 6172 792f 636f 7265 2f73 7263 2f6e 756d  ary/core/src/num
  - 01059d0: 2f66 6c74 3264 6563 2f73 7472 6174 6567  /flt2dec/strateg
  - 01059e0: 792f 6472 6167 6f6e 2e72 7361 7373 6572  y/dragon.rsasser
  - 01059f0: 7469 6f6e 2066 6169 6c65 643a 2064 2e6d  tion failed: d.m
  - 0105a00: 616e 7420 3e20 3000 bc59 1000 2f00 0000  ant > 0..Y../...
  - 0105a10: 7500 0000 0500 0000 6173 7365 7274 696f  u.......assertio
  - 0105a20: 6e20 6661 696c 6564 3a20 642e 6d69 6e75  n failed: d.minu
  - 0105a30: 7320 3e20 3000 0000 bc59 1000 2f00 0000  s > 0....Y../...
  - 0105a40: 7600 0000 0500 0000 6173 7365 7274 696f  v.......assertio
  - 0105a50: 6e20 6661 696c 6564 3a20 642e 706c 7573  n failed: d.plus
  - 0105a60: 203e 2030 bc59 1000 2f00 0000 7700 0000   > 0.Y../...w...
  - 0105a70: 0500 0000 6173 7365 7274 696f 6e20 6661  ....assertion fa
  - 0105a80: 696c 6564 3a20 6275 662e 6c65 6e28 2920  iled: buf.len()
  - 0105a90: 3e3d 204d 4158 5f53 4947 5f44 4947 4954  >= MAX_SIG_DIGIT
  - 0105aa0: 5300 0000 bc59 1000 2f00 0000 7a00 0000  S....Y../...z...
  - 0105ab0: 0500 0000 bc59 1000 2f00 0000 c100 0000  .....Y../.......
  - 0105ac0: 0900 0000 bc59 1000 2f00 0000 fa00 0000  .....Y../.......
  - 0105ad0: 0d00 0000 bc59 1000 2f00 0000 0101 0000  .....Y../.......
  - 0105ae0: 3600 0000 6173 7365 7274 696f 6e20 6661  6...assertion fa
  - 0105af0: 696c 6564 3a20 642e 6d61 6e74 2e63 6865  iled: d.mant.che
  - 0105b00: 636b 6564 5f73 7562 2864 2e6d 696e 7573  cked_sub(d.minus
  - 0105b10: 292e 6973 5f73 6f6d 6528 2900 bc59 1000  ).is_some()..Y..
  - 0105b20: 2f00 0000 7900 0000 0500 0000 6173 7365  /...y.......asse
  - 0105b30: 7274 696f 6e20 6661 696c 6564 3a20 642e  rtion failed: d.
  - 0105b40: 6d61 6e74 2e63 6865 636b 6564 5f61 6464  mant.checked_add
  - 0105b50: 2864 2e70 6c75 7329 2e69 735f 736f 6d65  (d.plus).is_some
  - 0105b60: 2829 0000 bc59 1000 2f00 0000 7800 0000  ()...Y../...x...
  - 0105b70: 0500 0000 bc59 1000 2f00 0000 0a01 0000  .....Y../.......
  - 0105b80: 0500 0000 bc59 1000 2f00 0000 0b01 0000  .....Y../.......
  - 0105b90: 0500 0000 bc59 1000 2f00 0000 0c01 0000  .....Y../.......
  - 0105ba0: 0500 0000 bc59 1000 2f00 0000 7101 0000  .....Y../...q...
  - 0105bb0: 2400 0000 bc59 1000 2f00 0000 7601 0000  $....Y../...v...
  - 0105bc0: 5700 0000 bc59 1000 2f00 0000 8301 0000  W....Y../.......
  - 0105bd0: 3600 0000 bc59 1000 2f00 0000 6501 0000  6....Y../...e...
  - 0105be0: 0d00 0000 bc59 1000 2f00 0000 4b01 0000  .....Y../...K...
  - 0105bf0: 2200 0000 bc59 1000 2f00 0000 0e01 0000  "....Y../.......
  - 0105c00: 0500 0000 bc59 1000 2f00 0000 0d01 0000  .....Y../.......
  - 0105c10: 0500 0000 0000 0000 df45 1a3d 03cf 1ae6  .........E.=....
  - 0105c20: c1fb ccfe 0000 0000 cac6 9ac7 17fe 70ab  ..............p.
  - 0105c30: dcfb d4fe 0000 0000 4fdc bcbe fcb1 77ff  ........O.....w.
  - 0105c40: f6fb dcfe 0000 0000 0cd6 6b41 ef91 56be  ..........kA..V.
  - 0105c50: 11fc e4fe 0000 0000 3cfc 7f90 ad1f d08d  ........<.......
  - 0105c60: 2cfc ecfe 0000 0000 839a 5531 285c 51d3  ,.........U1(\Q.
  - 0105c70: 46fc f4fe 0000 0000 b5c9 a6ad 8fac 719d  F.............q.
  - 0105c80: 61fc fcfe 0000 0000 cb8b ee23 7722 9cea  a..........#w"..
  - 0105c90: 7bfc 04ff 0000 0000 6d53 7840 9149 ccae  {.......mSx@.I..
  - 0105ca0: 96fc 0cff 0000 0000 57ce b65d 7912 3c82  ........W..]y.<.
  - 0105cb0: b1fc 14ff 0000 0000 3756 fb4d 3694 10c2  ........7V.M6...
  - 0105cc0: cbfc 1cff 0000 0000 4f98 4838 6fea 9690  ........O.H8o...
  - 0105cd0: e6fc 24ff 0000 0000 c73a 8225 cb85 74d7  ..$......:.%..t.
  - 0105ce0: 00fd 2cff 0000 0000 f497 bf97 cdcf 86a0  ..,.............
  - 0105cf0: 1bfd 34ff 0000 0000 e5ac 2a17 980a 34ef  ..4.......*...4.
  - 0105d00: 35fd 3cff 0000 0000 8eb2 352a fb67 38b2  5.<.......5*.g8.
  - 0105d10: 50fd 44ff 0000 0000 3b3f c6d2 dfd4 c884  P.D.....;?......
  - 0105d20: 6bfd 4cff 0000 0000 bacd d31a 2744 ddc5  k.L.........'D..
  - 0105d30: 85fd 54ff 0000 0000 96c9 25bb ce9f 6b93  ..T.......%...k.
  - 0105d40: a0fd 5cff 0000 0000 84a5 627d 246c acdb  ..\.......b}$l..
  - 0105d50: bafd 64ff 0000 0000 f6da 5f0d 5866 aba3  ..d......._.Xf..
  - 0105d60: d5fd 6cff 0000 0000 26f1 c3de 93f8 e2f3  ..l.....&.......
  - 0105d70: effd 74ff 0000 0000 b880 ffaa a8ad b5b5  ..t.............
  - 0105d80: 0afe 7cff 0000 0000 8b4a 7c6c 055f 6287  ..|......J|l._b.
  - 0105d90: 25fe 84ff 0000 0000 5330 c134 60ff bcc9  %.......S0.4`...
  - 0105da0: 3ffe 8cff 0000 0000 5526 ba91 8c85 4e96  ?.......U&....N.
  - 0105db0: 5afe 94ff 0000 0000 bd7e 2970 2477 f9df  Z........~)p$w..
  - 0105dc0: 74fe 9cff 0000 0000 8fb8 e5b8 9fbd dfa6  t...............
  - 0105dd0: 8ffe a4ff 0000 0000 947d 7488 cf5f a9f8  .........}t.._..
  - 0105de0: a9fe acff 0000 0000 cf9b a88f 9370 44b9  .............pD.
  - 0105df0: c4fe b4ff 0000 0000 6b15 0fbf f8f0 088a  ........k.......
  - 0105e00: dffe bcff 0000 0000 b631 3165 5525 b0cd  .........11eU%..
  - 0105e10: f9fe c4ff 0000 0000 ac7f 7bd0 c6e2 3f99  ..........{...?.
  - 0105e20: 14ff ccff 0000 0000 063b 2b2a c410 5ce4  .........;+*..\.
  - 0105e30: 2eff d4ff 0000 0000 d392 7369 9924 24aa  ..........si.$$.
  - 0105e40: 49ff dcff 0000 0000 0eca 0083 f2b5 87fd  I...............
  - 0105e50: 63ff e4ff 0000 0000 eb1a 1192 6408 e5bc  c...........d...
  - 0105e60: 7eff ecff 0000 0000 cc88 506f 09cc bc8c  ~.........Po....
  - 0105e70: 99ff f4ff 0000 0000 2c65 19e2 5817 b7d1  ........,e..X...
  - 0105e80: b3ff fcff 0000 0000 0000 0000 0000 409c  ..............@.
  - 0105e90: ceff 0400 0000 0000 0000 0000 10a5 d4e8  ................
  - 0105ea0: e8ff 0c00 0000 0000 0000 62ac c5eb 78ad  ..........b...x.
  - 0105eb0: 0300 1400 0000 0000 8409 94f8 7839 3f81  ............x9?.
  - 0105ec0: 1e00 1c00 0000 0000 b315 07c9 7bce 97c0  ............{...
  - 0105ed0: 3800 2400 0000 0000 705c ea7b ce32 7e8f  8.$.....p\.{.2~.
  - 0105ee0: 5300 2c00 0000 0000 6880 e9ab a438 d2d5  S.,.....h....8..
  - 0105ef0: 6d00 3400 0000 0000 4522 9a17 2627 4f9f  m.4.....E"..&'O.
  - 0105f00: 8800 3c00 0000 0000 27fb c4d4 31a2 63ed  ..<.....'...1.c.
  - 0105f10: a200 4400 0000 0000 a8ad c88c 3865 deb0  ..D.........8e..
  - 0105f20: bd00 4c00 0000 0000 db65 ab1a 8e08 c783  ..L......e......
  - 0105f30: d800 5400 0000 0000 9a1d 7142 f91d 5dc4  ..T.......qB..].
  - 0105f40: f200 5c00 0000 0000 58e7 1ba6 2c69 4d92  ..\.....X...,iM.
  - 0105f50: 0d01 6400 0000 0000 ea8d 701a 64ee 01da  ..d.......p.d...
  - 0105f60: 2701 6c00 0000 0000 4a77 ef9a 99a3 6da2  '.l.....Jw....m.
  - 0105f70: 4201 7400 0000 0000 856b 7db4 7b78 09f2  B.t......k}.{x..
  - 0105f80: 5c01 7c00 0000 0000 7718 dd79 a1e4 54b4  \.|.....w..y..T.
  - 0105f90: 7701 8400 0000 0000 c2c5 9b5b 9286 5b86  w..........[..[.
  - 0105fa0: 9201 8c00 0000 0000 3d5d 96c8 c553 35c8  ........=]...S5.
  - 0105fb0: ac01 9400 0000 0000 b3a0 97fa 5cb4 2a95  ............\.*.
  - 0105fc0: c701 9c00 0000 0000 e35f a099 bd9f 46de  ........._....F.
  - 0105fd0: e101 a400 0000 0000 258c 39db 34c2 9ba5  ........%.9.4...
  - 0105fe0: fc01 ac00 0000 0000 5c9f 98a3 729a c6f6  ........\...r...
  - 0105ff0: 1602 b400 0000 0000 cebe e954 53bf dcb7  ...........TS...
  - 0106000: 3102 bc00 0000 0000 e241 22f2 17f3 fc88  1........A".....
  - 0106010: 4c02 c400 0000 0000 a578 5cd3 9bce 20cc  L........x\... .
  - 0106020: 6602 cc00 0000 0000 df53 217b f35a 1698  f........S!{.Z..
  - 0106030: 8102 d400 0000 0000 3a30 1f97 dcb5 a0e2  ........:0......
  - 0106040: 9b02 dc00 0000 0000 96b3 e35c 53d1 d9a8  ...........\S...
  - 0106050: b602 e400 0000 0000 3c44 a7a4 d97c 9bfb  ........<D...|..
  - 0106060: d002 ec00 0000 0000 1044 a4a7 4c4c 76bb  .........D..LLv.
  - 0106070: eb02 f400 0000 0000 1a9c 40b6 ef8e ab8b  ..........@.....
  - 0106080: 0603 fc00 0000 0000 2c84 57a6 10ef 1fd0  ........,.W.....
  - 0106090: 2003 0401 0000 0000 2931 91e9 e5a4 109b   .......)1......
  - 01060a0: 3b03 0c01 0000 0000 9d0c 9ca1 fb9b 10e7  ;...............
  - 01060b0: 5503 1401 0000 0000 29f4 3b62 d920 28ac  U.......).;b. (.
  - 01060c0: 7003 1c01 0000 0000 85cf a77a 5e4b 4480  p..........z^KD.
  - 01060d0: 8b03 2401 0000 0000 2ddd ac03 40e4 21bf  ..$.....-...@.!.
  - 01060e0: a503 2c01 0000 0000 8fff 445e 2f9c 678e  ..,.......D^/.g.
  - 01060f0: c003 3401 0000 0000 41b8 8c9c 9d17 33d4  ..4.....A.....3.
  - 0106100: da03 3c01 0000 0000 a91b e3b4 92db 199e  ..<.............
  - 0106110: f503 4401 0000 0000 d977 dfba 6ebf 96eb  ..D......w..n...
  - 0106120: 0f04 4c01 0000 0000 6c69 6272 6172 792f  ..L.....library/
  - 0106130: 636f 7265 2f73 7263 2f6e 756d 2f66 6c74  core/src/num/flt
  - 0106140: 3264 6563 2f73 7472 6174 6567 792f 6772  2dec/strategy/gr
  - 0106150: 6973 752e 7273 0000 2861 1000 2e00 0000  isu.rs..(a......
  - 0106160: 7d00 0000 1500 0000 2861 1000 2e00 0000  }.......(a......
  - 0106170: a900 0000 0500 0000 2861 1000 2e00 0000  ........(a......
  - 0106180: aa00 0000 0500 0000 2861 1000 2e00 0000  ........(a......
  - 0106190: ab00 0000 0500 0000 2861 1000 2e00 0000  ........(a......
  - 01061a0: ae00 0000 0500 0000 6173 7365 7274 696f  ........assertio
  - 01061b0: 6e20 6661 696c 6564 3a20 642e 6d61 6e74  n failed: d.mant
  - 01061c0: 202b 2064 2e70 6c75 7320 3c20 2831 203c   + d.plus < (1 <
  - 01061d0: 3c20 3631 2900 0000 2861 1000 2e00 0000  < 61)...(a......
  - 01061e0: af00 0000 0500 0000 2861 1000 2e00 0000  ........(a......
  - 01061f0: 0a01 0000 1100 0000 2861 1000 2e00 0000  ........(a......
  - 0106200: 0d01 0000 0900 0000 2861 1000 2e00 0000  ........(a......
  - 0106210: 4001 0000 0900 0000 2861 1000 2e00 0000  @.......(a......
  - 0106220: ad00 0000 0500 0000 2861 1000 2e00 0000  ........(a......
  - 0106230: ac00 0000 0500 0000 6173 7365 7274 696f  ........assertio
  - 0106240: 6e20 6661 696c 6564 3a20 2162 7566 2e69  n failed: !buf.i
  - 0106250: 735f 656d 7074 7928 2900 0000 2861 1000  s_empty()...(a..
  - 0106260: 2e00 0000 dc01 0000 0500 0000 6173 7365  ............asse
  - 0106270: 7274 696f 6e20 6661 696c 6564 3a20 642e  rtion failed: d.
  - 0106280: 6d61 6e74 203c 2028 3120 3c3c 2036 3129  mant < (1 << 61)
  - 0106290: 2861 1000 2e00 0000 dd01 0000 0500 0000  (a..............
  - 01062a0: 2861 1000 2e00 0000 de01 0000 0500 0000  (a..............
  - 01062b0: 0100 0000 0a00 0000 6400 0000 e803 0000  ........d.......
  - 01062c0: 1027 0000 a086 0100 4042 0f00 8096 9800  .'......@B......
  - 01062d0: 00e1 f505 00ca 9a3b 2861 1000 2e00 0000  .......;(a......
  - 01062e0: 3302 0000 1100 0000 2861 1000 2e00 0000  3.......(a......
  - 01062f0: 3602 0000 0900 0000 2861 1000 2e00 0000  6.......(a......
  - 0106300: 6c02 0000 0900 0000 2861 1000 2e00 0000  l.......(a......
  - 0106310: e302 0000 4e00 0000 2861 1000 2e00 0000  ....N...(a......
  - 0106320: ef02 0000 4a00 0000 2861 1000 2e00 0000  ....J...(a......
  - 0106330: cc02 0000 4a00 0000 6c69 6272 6172 792f  ....J...library/
  - 0106340: 636f 7265 2f73 7263 2f6e 756d 2f66 6c74  core/src/num/flt
  - 0106350: 3264 6563 2f6d 6f64 2e72 7300 3863 1000  2dec/mod.rs.8c..
  - 0106360: 2300 0000 bc00 0000 0500 0000 6173 7365  #...........asse
  - 0106370: 7274 696f 6e20 6661 696c 6564 3a20 6275  rtion failed: bu
  - 0106380: 665b 305d 203e 2062 2730 2700 3863 1000  f[0] > b'0'.8c..
  - 0106390: 2300 0000 bd00 0000 0500 0000 6173 7365  #...........asse
  - 01063a0: 7274 696f 6e20 6661 696c 6564 3a20 7061  rtion failed: pa
  - 01063b0: 7274 732e 6c65 6e28 2920 3e3d 2034 0000  rts.len() >= 4..
  - 01063c0: 3863 1000 2300 0000 be00 0000 0500 0000  8c..#...........
  - 01063d0: 2e30 2e2d 2b4e 614e 696e 6630 6173 7365  .0.-+NaNinf0asse
  - 01063e0: 7274 696f 6e20 6661 696c 6564 3a20 6275  rtion failed: bu
  - 01063f0: 662e 6c65 6e28 2920 3e3d 206d 6178 6c65  f.len() >= maxle
  - 0106400: 6e00 0000 3863 1000 2300 0000 7f02 0000  n...8c..#.......
  - 0106410: 0d00 0000 6672 6f6d 5f73 7472 5f72 6164  ....from_str_rad
  - 0106420: 6978 5f69 6e74 3a20 6d75 7374 206c 6965  ix_int: must lie
  - 0106430: 2069 6e20 7468 6520 7261 6e67 6520 605b   in the range `[
  - 0106440: 322c 2033 365d 6020 2d20 666f 756e 6420  2, 36]` - found
  - 0106450: 1464 1000 3c00 0000 6c69 6272 6172 792f  .d..<...library/
  - 0106460: 636f 7265 2f73 7263 2f66 6d74 2f6d 6f64  core/src/fmt/mod
  - 0106470: 2e72 7329 2e2e 3031 3233 3435 3637 3839  .rs)..0123456789
  - 0106480: 6162 6364 6566 746f 5f64 6967 6974 3a20  abcdefto_digit:
  - 0106490: 7261 6469 7820 6973 2074 6f6f 2068 6967  radix is too hig
  - 01064a0: 6820 286d 6178 696d 756d 2033 3629 0000  h (maximum 36)..
  - 01064b0: 8664 1000 2800 0000 6c69 6272 6172 792f  .d..(...library/
  - 01064c0: 636f 7265 2f73 7263 2f63 6861 722f 6d65  core/src/char/me
  - 01064d0: 7468 6f64 732e 7273 b864 1000 2000 0000  thods.rs.d.. ...
  - 01064e0: 7f01 0000 0d00 0000 0100 0000 0000 0000  ................
  - 01064f0: 5b63 616c 6c65 6420 604f 7074 696f 6e3a  [called `Option:
  - 0106500: 3a75 6e77 7261 7028 2960 206f 6e20 6120  :unwrap()` on a
  - 0106510: 604e 6f6e 6560 2076 616c 7565 0a00 0000  `None` value....
  - 0106520: 9200 0000 0000 0000 0100 0000 9300 0000  ................
  - 0106530: 696e 6465 7820 6f75 7420 6f66 2062 6f75  index out of bou
  - 0106540: 6e64 733a 2074 6865 206c 656e 2069 7320  nds: the len is
  - 0106550: 2062 7574 2074 6865 2069 6e64 6578 2069   but the index i
  - 0106560: 7320 0000 3065 1000 2000 0000 5065 1000  s ..0e.. ...Pe..
  - 0106570: 1200 0000 9400 0000 0400 0000 0400 0000  ................
  - 0106580: 9500 0000 3d3d 213d 6d61 7463 6865 7361  ....==!=matchesa
  - 0106590: 7373 6572 7469 6f6e 2060 6c65 6674 2020  ssertion `left
  - 01065a0: 7269 6768 7460 2066 6169 6c65 640a 2020  right` failed.
  - 01065b0: 6c65 6674 3a20 0a20 7269 6768 743a 2000  left: . right: .
  - 01065c0: 8f65 1000 1000 0000 9f65 1000 1700 0000  .e.......e......
  - 01065d0: b665 1000 0900 0000 2072 6967 6874 6020  .e...... right`
  - 01065e0: 6661 696c 6564 3a20 0a20 206c 6566 743a  failed: .  left:
  - 01065f0: 2000 0000 8f65 1000 1000 0000 d865 1000   ....e.......e..
  - 0106600: 1000 0000 e865 1000 0900 0000 b665 1000  .....e.......e..
  - 0106610: 0900 0000 3a20 0000 0100 0000 0000 0000  ....: ..........
  - 0106620: 1466 1000 0200 0000 9400 0000 0c00 0000  .f..............
  - 0106630: 0400 0000 9600 0000 9700 0000 9800 0000  ................
  - 0106640: 2020 2020 207b 202c 2020 7b0a 2c0a 7d20       { ,  {.,.}
  - 0106650: 7d28 280a 2c5d 6c69 6272 6172 792f 636f  }((.,]library/co
  - 0106660: 7265 2f73 7263 2f66 6d74 2f6e 756d 2e72  re/src/fmt/num.r
  - 0106670: 7300 0000 5666 1000 1b00 0000 6900 0000  s...Vf......i...
  - 0106680: 1700 0000 3078 3030 3031 3032 3033 3034  ....0x0001020304
  - 0106690: 3035 3036 3037 3038 3039 3130 3131 3132  0506070809101112
  - 01066a0: 3133 3134 3135 3136 3137 3138 3139 3230  1314151617181920
  - 01066b0: 3231 3232 3233 3234 3235 3236 3237 3238  2122232425262728
  - 01066c0: 3239 3330 3331 3332 3333 3334 3335 3336  2930313233343536
  - 01066d0: 3337 3338 3339 3430 3431 3432 3433 3434  3738394041424344
  - 01066e0: 3435 3436 3437 3438 3439 3530 3531 3532  4546474849505152
  - 01066f0: 3533 3534 3535 3536 3537 3538 3539 3630  5354555657585960
  - 0106700: 3631 3632 3633 3634 3635 3636 3637 3638  6162636465666768
  - 0106710: 3639 3730 3731 3732 3733 3734 3735 3736  6970717273747576
  - 0106720: 3737 3738 3739 3830 3831 3832 3833 3834  7778798081828384
  - 0106730: 3835 3836 3837 3838 3839 3930 3931 3932  8586878889909192
  - 0106740: 3933 3934 3935 3936 3937 3938 3939 3030  9394959697989900
  - 0106750: 3030 3030 3030 3030 3030 3030 3030 3030  0000000000000000
  - 0106760: 3030 3030 3030 3030 3030 3030 3030 3030  0000000000000000
  - 0106770: 3030 3030 3030 3030 3030 3030 3030 3030  0000000000000000
  - 0106780: 3030 3030 3030 3030 3030 3030 3030 6661  00000000000000fa
  - 0106790: 6c73 6574 7275 6500 5864 1000 1b00 0000  lsetrue.Xd......
  - 01067a0: 6609 0000 1a00 0000 5864 1000 1b00 0000  f.......Xd......
  - 01067b0: 5f09 0000 2200 0000 7261 6e67 6520 7374  _..."...range st
  - 01067c0: 6172 7420 696e 6465 7820 206f 7574 206f  art index  out o
  - 01067d0: 6620 7261 6e67 6520 666f 7220 736c 6963  f range for slic
  - 01067e0: 6520 6f66 206c 656e 6774 6820 b867 1000  e of length .g..
  - 01067f0: 1200 0000 ca67 1000 2200 0000 7261 6e67  .....g.."...rang
  - 0106800: 6520 656e 6420 696e 6465 7820 fc67 1000  e end index .g..
  - 0106810: 1000 0000 ca67 1000 2200 0000 736c 6963  .....g.."...slic
  - 0106820: 6520 696e 6465 7820 7374 6172 7473 2061  e index starts a
  - 0106830: 7420 2062 7574 2065 6e64 7320 6174 2000  t  but ends at .
  - 0106840: 1c68 1000 1600 0000 3268 1000 0d00 0000  .h......2h......
  - 0106850: 6174 7465 6d70 7465 6420 746f 2069 6e64  attempted to ind
  - 0106860: 6578 2073 6c69 6365 2066 726f 6d20 6166  ex slice from af
  - 0106870: 7465 7220 6d61 7869 6d75 6d20 7573 697a  ter maximum usiz
  - 0106880: 6500 0000 5068 1000 3100 0000 6174 7465  e...Ph..1...atte
  - 0106890: 6d70 7465 6420 746f 2069 6e64 6578 2073  mpted to index s
  - 01068a0: 6c69 6365 2075 7020 746f 206d 6178 696d  lice up to maxim
  - 01068b0: 756d 2075 7369 7a65 8c68 1000 2c00 0000  um usize.h..,...
  - 01068c0: 6174 7465 6d70 7465 6420 746f 2069 6e64  attempted to ind
  - 01068d0: 6578 2073 7472 2075 7020 746f 206d 6178  ex str up to max
  - 01068e0: 696d 756d 2075 7369 7a65 0000 c068 1000  imum usize...h..
  - 01068f0: 2a00 0000 0101 0101 0101 0101 0101 0101  *...............
  - 0106900: 0101 0101 0101 0101 0101 0101 0101 0101  ................
  - 0106910: 0101 0101 0101 0101 0101 0101 0101 0101  ................
  - 0106920: 0101 0101 0101 0101 0101 0101 0101 0101  ................
  - 0106930: 0101 0101 0101 0101 0101 0101 0101 0101  ................
  - 0106940: 0101 0101 0101 0101 0101 0101 0101 0101  ................
  - 0106950: 0101 0101 0101 0101 0101 0101 0101 0101  ................
  - 0106960: 0101 0101 0101 0101 0101 0101 0101 0101  ................
  - 0106970: 0101 0101 0000 0000 0000 0000 0000 0000  ................
  - 0106980: 0000 0000 0000 0000 0000 0000 0000 0000  ................
  - 0106990: 0000 0000 0000 0000 0000 0000 0000 0000  ................
  - 01069a0: 0000 0000 0000 0000 0000 0000 0000 0000  ................
  - 01069b0: 0000 0000 0000 0202 0202 0202 0202 0202  ................
  - 01069c0: 0202 0202 0202 0202 0202 0202 0202 0202  ................
  - 01069d0: 0202 0202 0303 0303 0303 0303 0303 0303  ................
  - 01069e0: 0303 0303 0404 0404 0400 0000 0000 0000  ................
  - 01069f0: 0000 0000 6c69 6272 6172 792f 636f 7265  ....library/core
  - 0106a00: 2f73 7263 2f73 7472 2f70 6174 7465 726e  /src/str/pattern
  - 0106a10: 2e72 7300 f469 1000 1f00 0000 5205 0000  .rs..i......R...
  - 0106a20: 1200 0000 f469 1000 1f00 0000 5205 0000  .....i......R...
  - 0106a30: 2800 0000 f469 1000 1f00 0000 4506 0000  (....i......E...
  - 0106a40: 1500 0000 f469 1000 1f00 0000 7306 0000  .....i......s...
  - 0106a50: 1500 0000 f469 1000 1f00 0000 7406 0000  .....i......t...
  - 0106a60: 1500 0000 005b 2e2e 2e5d 6265 6769 6e20  .....[...]begin
  - 0106a70: 3c3d 2065 6e64 2028 203c 3d20 2920 7768  <= end ( <= ) wh
  - 0106a80: 656e 2073 6c69 6369 6e67 2060 6000 0000  en slicing ``...
  - 0106a90: 6a6a 1000 0e00 0000 786a 1000 0400 0000  jj......xj......
  - 0106aa0: 7c6a 1000 1000 0000 8c6a 1000 0100 0000  |j.......j......
  - 0106ab0: 6279 7465 2069 6e64 6578 2020 6973 206e  byte index  is n
  - 0106ac0: 6f74 2061 2063 6861 7220 626f 756e 6461  ot a char bounda
  - 0106ad0: 7279 3b20 6974 2069 7320 696e 7369 6465  ry; it is inside
  - 0106ae0: 2020 2862 7974 6573 2029 206f 6620 6000    (bytes ) of `.
  - 0106af0: b06a 1000 0b00 0000 bb6a 1000 2600 0000  .j.......j..&...
  - 0106b00: e16a 1000 0800 0000 e96a 1000 0600 0000  .j.......j......
  - 0106b10: 8c6a 1000 0100 0000 2069 7320 6f75 7420  .j...... is out
  - 0106b20: 6f66 2062 6f75 6e64 7320 6f66 2060 0000  of bounds of `..
  - 0106b30: b06a 1000 0b00 0000 186b 1000 1600 0000  .j.......k......
  - 0106b40: 8c6a 1000 0100 0000 6c69 6272 6172 792f  .j......library/
  - 0106b50: 636f 7265 2f73 7263 2f73 7472 2f6d 6f64  core/src/str/mod
  - 0106b60: 2e72 7300 486b 1000 1b00 0000 0501 0000  .rs.Hk..........
  - 0106b70: 2c00 0000 6c69 6272 6172 792f 636f 7265  ,...library/core
  - 0106b80: 2f73 7263 2f75 6e69 636f 6465 2f70 7269  /src/unicode/pri
  - 0106b90: 6e74 6162 6c65 2e72 7300 0000 746b 1000  ntable.rs...tk..
  - 0106ba0: 2500 0000 1a00 0000 3600 0000 746b 1000  %.......6...tk..
  - 0106bb0: 2500 0000 0a00 0000 2b00 0000 0006 0101  %.......+.......
  - 0106bc0: 0301 0402 0507 0702 0808 0902 0a05 0b02  ................
  - 0106bd0: 0e04 1001 1102 1205 1311 1401 1502 1702  ................
  - 0106be0: 190d 1c05 1d08 1f01 2401 6a04 6b02 af03  ........$.j.k...
  - 0106bf0: b102 bc02 cf02 d102 d40c d509 d602 d702  ................
  - 0106c00: da01 e005 e102 e704 e802 ee20 f004 f802  ........... ....
  - 0106c10: fa03 fb01 0c27 3b3e 4e4f 8f9e 9e9f 7b8b  .....';>NO....{.
  - 0106c20: 9396 a2b2 ba86 b106 0709 363d 3e56 f3d0  ..........6=>V..
  - 0106c30: d104 1418 3637 5657 7faa aeaf bd35 e012  ....67VW.....5..
  - 0106c40: 8789 8e9e 040d 0e11 1229 3134 3a45 4649  .........)14:EFI
  - 0106c50: 4a4e 4f64 655c b6b7 1b1c 0708 0a0b 1417  JNOde\..........
  - 0106c60: 3639 3aa8 a9d8 d909 3790 91a8 070a 3b3e  69:.....7.....;>
  - 0106c70: 6669 8f92 116f 5fbf eeef 5a62 f4fc ff53  fi...o_...Zb...S
  - 0106c80: 549a 9b2e 2f27 2855 9da0 a1a3 a4a7 a8ad  T.../'(U........
  - 0106c90: babc c406 0b0c 151d 3a3f 4551 a6a7 cccd  ........:?EQ....
  - 0106ca0: a007 191a 2225 3e3f e7ec efff c5c6 0420  ...."%>?.......
  - 0106cb0: 2325 2628 3338 3a48 4a4c 5053 5556 585a  #%&(38:HJLPSUVXZ
  - 0106cc0: 5c5e 6063 6566 6b73 787d 7f8a a4aa afb0  \^`cefksx}......
  - 0106cd0: c0d0 aeaf 6e6f be93 5e22 7b05 0304 2d03  ....no..^"{...-.
  - 0106ce0: 6603 012f 2e80 821d 0331 0f1c 0424 091e  f../.....1...$..
  - 0106cf0: 052b 0544 040e 2a80 aa06 2404 2404 2808  .+.D..*...$.$.(.
  - 0106d00: 340b 4e43 8137 0916 0a08 183b 4539 0363  4.NC.7.....;E9.c
  - 0106d10: 0809 3016 0521 031b 0501 4038 044b 052f  ..0..!....@8.K./
  - 0106d20: 040a 0709 0740 2027 040c 0936 033a 051a  .....@ '...6.:..
  - 0106d30: 0704 0c07 5049 3733 0d33 072e 080a 8126  ....PI73.3.....&
  - 0106d40: 524b 2b08 2a16 1a26 1c14 1709 4e04 2409  RK+.*..&....N.$.
  - 0106d50: 440d 1907 0a06 4808 2709 750b 423e 2a06  D.....H.'.u.B>*.
  - 0106d60: 3b05 0a06 5106 0105 1003 0580 8b62 1e48  ;...Q........b.H
  - 0106d70: 080a 80a6 5e22 450b 0a06 0d13 3a06 0a36  ....^"E.....:..6
  - 0106d80: 2c04 1780 b93c 6453 0c48 090a 4645 1b48  ,....<dS.H..FE.H
  - 0106d90: 0853 0d49 070a 80f6 460a 1d03 4749 3703  .S.I....F...GI7.
  - 0106da0: 0e08 0a06 3907 0a81 3619 073b 031c 5601  ....9...6..;..V.
  - 0106db0: 0f32 0d83 9b66 750b 80c4 8a4c 630d 8430  .2...fu....Lc..0
  - 0106dc0: 1016 8faa 8247 a1b9 8239 072a 045c 0626  .....G...9.*.\.&
  - 0106dd0: 0a46 0a28 0513 82b0 5b65 4b04 3907 1140  .F.(....[eK.9..@
  - 0106de0: 050b 020e 97f8 0884 d62a 09a2 e781 330f  .........*....3.
  - 0106df0: 011d 060e 0408 818c 8904 6b05 0d03 0907  ..........k.....
  - 0106e00: 1092 6047 0974 3c80 f60a 7308 7015 467a  ..`G.t<...s.p.Fz
  - 0106e10: 140c 140c 5709 1980 8781 4703 8542 0f15  ....W.....G..B..
  - 0106e20: 8450 1f06 0680 d52b 053e 2101 702d 031a  .P.....+.>!.p-..
  - 0106e30: 0402 8140 1f11 3a05 0181 d02a 82e6 80f7  ...@..:....*....
  - 0106e40: 294c 040a 0402 8311 444c 3d80 c23c 0601  )L......DL=..<..
  - 0106e50: 0455 051b 3402 810e 2c04 640c 560a 80ae  .U..4...,.d.V...
  - 0106e60: 381d 0d2c 0409 0702 0e06 809a 83d8 0411  8..,............
  - 0106e70: 030d 0377 045f 060c 0401 0f0c 0438 080a  ...w._.......8..
  - 0106e80: 0628 0822 4e81 540c 1d03 0907 3608 0e04  .(."N.T.....6...
  - 0106e90: 0907 0907 80cb 250a 8406 0001 0305 0506  ......%.........
  - 0106ea0: 0602 0706 0807 0911 0a1c 0b19 0c1a 0d10  ................
  - 0106eb0: 0e0c 0f04 1003 1212 1309 1601 1704 1801  ................
  - 0106ec0: 1903 1a07 1b01 1c02 1f16 2003 2b03 2d0b  .......... .+.-.
  - 0106ed0: 2e01 3004 3102 3201 a702 a902 aa04 ab08  ..0.1.2.........
  - 0106ee0: fa02 fb05 fd02 fe03 ff09 ad78 798b 8da2  ...........xy...
  - 0106ef0: 3057 588b 8c90 1cdd 0e0f 4b4c fbfc 2e2f  0WX.......KL.../
  - 0106f00: 3f5c 5d5f e284 8d8e 9192 a9b1 babb c5c6  ?\]_............
  - 0106f10: c9ca dee4 e5ff 0004 1112 2931 3437 3a3b  ..........)147:;
  - 0106f20: 3d49 4a5d 848e 92a9 b1b4 babb c6ca cecf  =IJ]............
  - 0106f30: e4e5 0004 0d0e 1112 2931 343a 3b45 4649  ........)14:;EFI
  - 0106f40: 4a5e 6465 8491 9b9d c9ce cf0d 1129 3a3b  J^de.........):;
  - 0106f50: 4549 575b 5c5e 5f64 658d 91a9 b4ba bbc5  EIW[\^_de.......
  - 0106f60: c9df e4e5 f00d 1145 4964 6580 84b2 bcbe  .......EIde.....
  - 0106f70: bfd5 d7f0 f183 858b a4a6 bebf c5c7 cfda  ................
  - 0106f80: db48 98bd cdc6 cecf 494e 4f57 595e 5f89  .H......INOWY^_.
  - 0106f90: 8e8f b1b6 b7bf c1c6 c7d7 1116 175b 5cf6  .............[\.
  - 0106fa0: f7fe ff80 6d71 dedf 0e1f 6e6f 1c1d 5f7d  ....mq....no.._}
  - 0106fb0: 7eae af7f bbbc 1617 1e1f 4647 4e4f 585a  ~.........FGNOXZ
  - 0106fc0: 5c5e 7e7f b5c5 d4d5 dcf0 f1f5 7273 8f74  \^~.........rs.t
  - 0106fd0: 7596 262e 2fa7 afb7 bfc7 cfd7 df9a 0040  u.&./..........@
  - 0106fe0: 9798 308f 1fd2 d4ce ff4e 4f5a 5b07 080f  ..0......NOZ[...
  - 0106ff0: 1027 2fee ef6e 6f37 3d3f 4245 9091 5367  .'/..no7=?BE..Sg
  - 0107000: 75c8 c9d0 d1d8 d9e7 feff 0020 5f22 82df  u.......... _"..
  - 0107010: 0482 4408 1b04 0611 81ac 0e80 ab05 1f09  ..D.............
  - 0107020: 811b 0319 0801 042f 0434 0407 0301 0706  ......./.4......
  - 0107030: 0711 0a50 0f12 0755 0703 041c 0a09 0308  ...P...U........
  - 0107040: 0307 0302 0303 030c 0405 030b 0601 0e15  ................
  - 0107050: 054e 071b 0757 0702 0617 0c50 0443 032d  .N...W.....P.C.-
  - 0107060: 0301 0411 060f 0c3a 041d 255f 206d 046a  .......:..%_ m.j
  - 0107070: 2580 c805 82b0 031a 0682 fd03 5907 1609  %...........Y...
  - 0107080: 1809 140c 140c 6a06 0a06 1a06 5907 2b05  ......j.....Y.+.
  - 0107090: 460a 2c04 0c04 0103 310b 2c04 1a06 0b03  F.,.....1.,.....
  - 01070a0: 80ac 060a 062f 314d 0380 a408 3c03 0f03  ...../1M....<...
  - 01070b0: 3c07 3808 2b05 82ff 1118 082f 112d 0321  <.8.+....../.-.!
  - 01070c0: 0f21 0f80 8c04 8297 190b 1588 9405 2f05  .!............/.
  - 01070d0: 3b07 020e 1809 80be 2274 0c80 d61a 8110  ;......."t......
  - 01070e0: 0580 df0b f29e 0337 0981 5c14 80b8 0880  .......7..\.....
  - 01070f0: cb05 0a18 3b03 0a06 3808 4608 0c06 740b  ....;...8.F...t.
  - 0107100: 1e03 5a04 5909 8083 181c 0a16 094c 0480  ..Z.Y........L..
  - 0107110: 8a06 aba4 0c17 0431 a104 81da 2607 0c05  .......1....&...
  - 0107120: 0580 a610 81f5 0701 202a 064c 0480 8d04  ........ *.L....
  - 0107130: 80be 031b 030f 0d6c 6962 7261 7279 2f63  .......library/c
  - 0107140: 6f72 652f 7372 632f 756e 6963 6f64 652f  ore/src/unicode/
  - 0107150: 756e 6963 6f64 655f 6461 7461 2e72 7300  unicode_data.rs.
  - 0107160: 3771 1000 2800 0000 5000 0000 2800 0000  7q..(...P...(...
  - 0107170: 3771 1000 2800 0000 5c00 0000 1600 0000  7q..(...\.......
  - 0107180: 6c69 6272 6172 792f 636f 7265 2f73 7263  library/core/src
  - 0107190: 2f65 7363 6170 652e 7273 0000 8071 1000  /escape.rs...q..
  - 01071a0: 1a00 0000 3800 0000 0b00 0000 5c75 7b00  ....8.......\u{.
  - 01071b0: 8071 1000 1a00 0000 6600 0000 2300 0000  .q......f...#...
  - 01071c0: 6c69 6272 6172 792f 636f 7265 2f73 7263  library/core/src
  - 01071d0: 2f6e 756d 2f62 6967 6e75 6d2e 7273 0000  /num/bignum.rs..
  - 01071e0: c071 1000 1e00 0000 ac01 0000 0100 0000  .q..............
  - 01071f0: 6173 7365 7274 696f 6e20 6661 696c 6564  assertion failed
  - 0107200: 3a20 6e6f 626f 7272 6f77 6173 7365 7274  : noborrowassert
  - 0107210: 696f 6e20 6661 696c 6564 3a20 6469 6769  ion failed: digi
  - 0107220: 7473 203c 2034 3061 7373 6572 7469 6f6e  ts < 40assertion
  - 0107230: 2066 6169 6c65 643a 206f 7468 6572 203e   failed: other >
  - 0107240: 2030 6c69 6272 6172 792f 636f 7265 2f73   0library/core/s
  - 0107250: 7263 2f6e 756d 2f6d 6f64 2e72 7300 0000  rc/num/mod.rs...
  - 0107260: 4272 1000 1b00 0000 0a06 0000 0100 0000  Br..............
  - 0107270: 6174 7465 6d70 7420 746f 2064 6976 6964  attempt to divid
  - 0107280: 6520 6279 207a 6572 6f00 0000 7072 1000  e by zero...pr..
  - 0107290: 1900 0000 0003 0000 8304 2000 9105 6000  .......... ...`.
  - 01072a0: 5d13 a000 1217 201f 0c20 601f ef2c a02b  ]..... .. `..,.+
  - 01072b0: 2a30 202c 6fa6 e02c 02a8 602d 1efb 602e  *0 ,o..,..`-..`.
  - 01072c0: 00fe 2036 9eff 6036 fd01 e136 010a 2137  .. 6..`6...6..!7
  - 01072d0: 240d e137 ab0e 6139 2f18 a139 301c 6148  $..7..a9/..90.aH
  - 01072e0: f31e a14c 4034 6150 f06a a151 4f6f 2152  ...L@4aP.j.QOo!R
  - 01072f0: 9dbc a152 00cf 6153 65d1 a153 00da 2154  ...R..aSe..S..!T
  - 0107300: 00e0 e155 aee2 6157 ece4 2159 d0e8 a159  ...U..aW..!Y...Y
  - 0107310: 2000 ee59 f001 7f5a 0070 0007 002d 0101   ..Y...Z.p...-..
  - 0107320: 0102 0102 0101 480b 3015 1001 6507 0206  ......H.0...e...
  - 0107330: 0202 0104 2301 1e1b 5b0b 3a09 0901 1804  ....#...[.:.....
  - 0107340: 0109 0103 0105 2b03 3c08 2a18 0120 3701  ......+.<.*.. 7.
  - 0107350: 0101 0408 0401 0307 0a02 1d01 3a01 0101  ............:...
  - 0107360: 0204 0801 0901 0a02 1a01 0202 3901 0402  ............9...
  - 0107370: 0402 0203 0301 1e02 0301 0b02 3901 0405  ............9...
  - 0107380: 0102 0401 1402 1606 0101 3a01 0102 0104  ..........:.....
  - 0107390: 0801 0703 0a02 1e01 3b01 0101 0c01 0901  ........;.......
  - 01073a0: 2801 0301 3701 0103 0503 0104 0702 0b02  (...7...........
  - 01073b0: 1d01 3a01 0201 0201 0301 0502 0702 0b02  ..:.............
  - 01073c0: 1c02 3902 0101 0204 0801 0901 0a02 1d01  ..9.............
  - 01073d0: 4801 0401 0203 0101 0801 5101 0207 0c08  H.........Q.....
  - 01073e0: 6201 0209 0b07 4902 1b01 0101 0101 370e  b.....I.......7.
  - 01073f0: 0105 0102 050b 0124 0901 6604 0106 0102  .......$..f.....
  - 0107400: 0202 1902 0403 1004 0d01 0202 0601 0f01  ................
  - 0107410: 0003 0003 1d02 1e02 1e02 4002 0107 0801  ..........@.....
  - 0107420: 020b 0901 2d03 0101 7502 2201 7603 0402  ....-...u.".v...
  - 0107430: 0901 0603 db02 0201 3a01 0107 0101 0101  ........:.......
  - 0107440: 0208 060a 0201 301f 3104 3007 0101 0501  ......0.1.0.....
  - 0107450: 2809 0c02 2004 0202 0103 3801 0102 0301  (... .....8.....
  - 0107460: 0103 3a08 0202 9803 010d 0107 0401 0601  ..:.............
  - 0107470: 0302 c640 0001 c321 0003 8d01 6020 0006  ...@...!....` ..
  - 0107480: 6902 0004 010a 2002 5002 0001 0301 0401  i..... .P.......
  - 0107490: 1902 0501 9702 1a12 0d01 2608 190b 2e03  ..........&.....
  - 01074a0: 3001 0204 0202 2701 4306 0202 0202 0c01  0.....'.C.......
  - 01074b0: 0801 2f01 3301 0103 0202 0502 0101 2a02  ../.3.........*.
  - 01074c0: 0801 ee01 0201 0401 0001 0010 1010 0002  ................
  - 01074d0: 0001 e201 9505 0003 0102 0504 2803 0401  ............(...
  - 01074e0: a502 0004 0002 5003 460b 3104 7b01 360f  ......P.F.1.{.6.
  - 01074f0: 2901 0202 0a03 3104 0202 0701 3d03 2405  ).....1.....=.$.
  - 0107500: 0108 3e01 0c02 3409 0a04 0201 5f03 0201  ..>...4....._...
  - 0107510: 0102 0601 0201 9d01 0308 1502 3902 0101  ............9...
  - 0107520: 0101 1601 0e07 0305 c308 0203 0101 1701  ................
  - 0107530: 5101 0206 0101 0201 0102 0102 eb01 0204  Q...............
  - 0107540: 0602 0102 1b02 5508 0201 0102 6a01 0101  ......U.....j...
  - 0107550: 0206 0101 6503 0204 0105 0009 0102 f501  ....e...........
  - 0107560: 0a02 0101 0401 9004 0202 0401 200a 2806  ............ .(.
  - 0107570: 0204 0801 0906 0203 2e0d 0102 0007 0106  ................
  - 0107580: 0101 5216 0207 0102 0102 7a06 0301 0102  ..R.......z.....
  - 0107590: 0107 0101 4802 0301 0101 0002 0b02 3405  ....H.........4.
  - 01075a0: 0501 0101 0001 060f 0005 3b07 0001 3f04  ..........;...?.
  - 01075b0: 5101 0002 002e 0217 0001 0103 0405 0808  Q...............
  - 01075c0: 0207 1e04 9403 0037 0432 0801 0e01 1605  .......7.2......
  - 01075d0: 010f 0007 0111 0207 0102 0105 6401 a007  ............d...
  - 01075e0: 0001 3d04 0004 0007 6d07 0060 80f0 0002  ..=.....m..`....
  - 01075f0: 0202 0202 0202 0202 0303 0101 0100 0000  ................
  - 0107600: 0000 0000 0000 0000 0000 0000 0000 0001  ................
  - 0107610: 0000 0000 0000 0002 0200 0000 0000 0200  ................
  - 0107620: 0000 0000 0000 0000 0000 0000 0000 0000  ................
  - 0107630: 0000 0000 0000 0000 0000 0000 0000 0000  ................
  - 0107640: 0000 0000 0000 0000 0000 0000 0000 0200  ................
  - 0107650: 0000 0000 0000 0000 0000 0000 0000 0000  ................
  - 0107660: 0000 0000 0000 0000 0000 0000 0000 0000  ................
  - 0107670: 0000 0000 0100 0000 0000 0000 0000 0000  ................
  - 0107680: 0000 0000 0000 0000 0000 0000 0000 0001  ................
  - 0107690: 0000 0000 0000 0000 0000 0000 0000 0000  ................
  - 01076a0: 0000 0000 0000 0000 0000 0000 0000 0000  ................
  - 01076b0: 0000 0000 0000 0000 0000 0000 0000 0000  ................
  - 01076c0: 0000 0000 0000 0000 0000 0000 0000 0000  ................
  - 01076d0: 0000 0000 0000 0000 0000 0000 0000 0000  ................
  - 01076e0: 0000 0000 0000 0000 0000 0000 0000 00    ...............
Custom:
 - name: "name"
 - module <add_fun.wasm>
 - func[0] <_ZN10extism_pdk6extism5alloc17h5ee08df7adf3b190E>
 - func[1] <_ZN7add_fun18sum_from_host_impl17ha392a6c0ce514d62E>
 - func[2] <_ZN10extism_pdk6extism9error_set17h313dfede138b84ecE>
 - func[3] <_ZN10extism_pdk6extism8load_u6417hd40fbd8af9c8b531E>
 - func[4] <_ZN10extism_pdk6extism7load_u817h579f888a0e874271E>
 - func[5] <_ZN10extism_pdk6extism12input_length17hef40ec4bea161e21E>
 - func[6] <_ZN10extism_pdk6extism14input_load_u6417h627200e230665f29E>
 - func[7] <_ZN10extism_pdk6extism13input_load_u817h055a0a212db69470E>
 - func[8] <_ZN10extism_pdk6extism9store_u6417h2a8a6e6114b4ef91E>
 - func[9] <_ZN10extism_pdk6extism8store_u817hf85ed817d98c7040E>
 - func[10] <_ZN10extism_pdk6extism6length17hcb02b4ebcebadab1E>
 - func[11] <_ZN10extism_pdk6extism10output_set17hba7ab900fdccc8c5E>
 - func[12] <_ZN10serde_json2de10from_trait17he37474ae39607711E>
 - func[13] <_ZN93_$LT$$RF$mut$u20$serde_json..de..Deserializer$LT$R$GT$$u20$as$u20$serde..de..Deserializer$GT$18deserialize_struct17h061df9ffad7fd2f2E>
 - func[14] <_ZN10serde_json2de21Deserializer$LT$R$GT$13parse_decimal17h7f7f453510a89aedE>
 - func[15] <_ZN10serde_json2de21Deserializer$LT$R$GT$14f64_from_parts17h23966bdea0412336E>
 - func[16] <_ZN10serde_json2de21Deserializer$LT$R$GT$14parse_exponent17h3257780bd2edfaf8E>
 - func[17] <_ZN10serde_json2de21Deserializer$LT$R$GT$22parse_decimal_overflow17hd41b63fdcc40ae07E>
 - func[18] <_ZN10serde_json2de21Deserializer$LT$R$GT$13parse_integer17h7a8dc8b2f824fb6aE>
 - func[19] <_ZN10serde_json2de21Deserializer$LT$R$GT$18parse_long_integer17heac5bfa854cd86dcE>
 - func[20] <_ZN10serde_json2de21Deserializer$LT$R$GT$14ignore_integer17hde5676bb58955f50E>
 - func[21] <_ZN10serde_json2de21Deserializer$LT$R$GT$15ignore_exponent17hf808878500314bb7E>
 - func[22] <_ZN10serde_json2de21Deserializer$LT$R$GT$23parse_exponent_overflow17h10d21cdb973b9b9fE>
 - func[23] <_ZN10serde_json2de21Deserializer$LT$R$GT$17peek_invalid_type17hf8dc169e2b34095bE>
 - func[24] <_ZN10serde_json2de21Deserializer$LT$R$GT$18parse_object_colon17h36b2a624c71f5e2bE>
 - func[25] <_ZN4core3ptr121drop_in_place$LT$add_fun.._..$LT$impl$u20$serde..de..Deserialize$u20$for$u20$add_fun..Add$GT$..deserialize..__Visitor$GT$17hf41c0892b9a8bff1E>
 - func[26] <_ZN4core3ptr28drop_in_place$LT$$RF$str$GT$17h99337e9f61fc53fcE>
 - func[27] <_ZN4core3ptr45drop_in_place$LT$serde_json..error..Error$GT$17he7d2ed851b3cc741E>
 - func[28] <_ZN5serde2de9SeqAccess12next_element17h0851859645e5b261E>
 - func[29] <_ZN81_$LT$core..marker..PhantomData$LT$T$GT$$u20$as$u20$serde..de..DeserializeSeed$GT$11deserialize17hb11e1e6a3f07f85aE>
 - func[30] <_ZN41_$LT$T$u20$as$u20$serde..de..Expected$GT$3fmt17hdf321f444d25fe5bE>
 - func[31] <_ZN5alloc7raw_vec11finish_grow17h75cc3e7ed1341fb1E.llvm.15086629167384057212>
 - func[32] <_ZN5alloc7raw_vec19RawVec$LT$T$C$A$GT$7reserve21do_reserve_and_handle17hdb640f8871406cd4E>
 - func[33] <_ZN7add_fun13sum_from_host17h0b999b4812455f6fE>
 - func[34] <add_numbers>
 - func[35] <add_from_host>
 - func[36] <add_from_host_one>
 - func[37] <_ZN6anyhow5error72_$LT$impl$u20$core..convert..From$LT$E$GT$$u20$for$u20$anyhow..Error$GT$4from17ha55a4bec4535e006E.llvm.1030253459691590260>
 - func[38] <_ZN10serde_json5error5Error12fix_position17h41bf85bf98eeb908E>
 - func[39] <_ZN41_$LT$T$u20$as$u20$serde..de..Expected$GT$3fmt17h7c2816790a92d911E>
 - func[40] <_ZN44_$LT$$RF$T$u20$as$u20$core..fmt..Display$GT$3fmt17h4840a2618ce82bb0E.llvm.1030253459691590260>
 - func[41] <_ZN44_$LT$$RF$T$u20$as$u20$core..fmt..Display$GT$3fmt17h887f94fb1c732fccE.llvm.1030253459691590260>
 - func[42] <_ZN4core3ptr125drop_in_place$LT$serde..de..impls..$LT$impl$u20$serde..de..Deserialize$u20$for$u20$i64$GT$..deserialize..PrimitiveVisitor$GT$17h1d4dd0f673c74d37E.llvm.1030253459691590260>
 - func[43] <_ZN4core3ptr44drop_in_place$LT$std..backtrace..Capture$GT$17h562e73347f08b63eE>
 - func[44] <_ZN4core3ptr45drop_in_place$LT$serde_json..error..Error$GT$17he7d2ed851b3cc741E>
 - func[45] <_ZN4core3ptr77drop_in_place$LT$anyhow..error..ErrorImpl$LT$serde_json..error..Error$GT$$GT$17ha2fd0efada665a32E>
 - func[46] <_ZN4core5error5Error11description17h3ca588bd2d716a9dE>
 - func[47] <_ZN4core5error5Error11description17hb3e9e15a3bad5164E>
 - func[48] <_ZN4core5error5Error5cause17hd618e1ab6ba4b6a0E>
 - func[49] <_ZN4core5error5Error5cause17he38d6c5fd2e44891E>
 - func[50] <_ZN4core5error5Error7provide17h3630148d45b65b18E>
 - func[51] <_ZN4core5error5Error7provide17he0a268d008a46b96E>
 - func[52] <_ZN4core5error5Error7type_id17h4e1e53b0645b2488E>
 - func[53] <_ZN4core5error5Error7type_id17hf88902d01fdf2e53E>
 - func[54] <_ZN5serde2de5Error13missing_field17hd337412a4f29609bE>
 - func[55] <_ZN61_$LT$serde_json..error..Error$u20$as$u20$serde..de..Error$GT$6custom17ha4a4c5e65fcd8692E.llvm.1030253459691590260>
 - func[56] <_ZN5serde2de5Error14invalid_length17h4cefe02499f63b06E>
 - func[57] <_ZN5serde2de5Error15duplicate_field17hec805cedadcac46dE>
 - func[58] <_ZN6anyhow5error10object_ref17h3412bb7c79886825E.llvm.1030253459691590260>
 - func[59] <_ZN6anyhow5error11object_drop17h9a4e890726284daaE.llvm.1030253459691590260>
 - func[60] <_ZN6anyhow5error12no_backtrace17h206db79473c73424E.llvm.1030253459691590260>
 - func[61] <_ZN6anyhow5error12object_boxed17ha10aa366287b6905E.llvm.1030253459691590260>
 - func[62] <_ZN6anyhow5error15object_downcast17h3ad0c9b25bd0617cE.llvm.1030253459691590260>
 - func[63] <_ZN6anyhow5error17object_drop_front17h9519113aa6260882E.llvm.1030253459691590260>
 - func[64] <_ZN6anyhow5error31_$LT$impl$u20$anyhow..Error$GT$9construct17hd6320c48bb5c5d54E.llvm.1030253459691590260>
 - func[65] <_ZN70_$LT$anyhow..error..ErrorImpl$LT$E$GT$$u20$as$u20$core..fmt..Debug$GT$3fmt17he54555aa103b6fb4E>
 - func[66] <_ZN72_$LT$anyhow..error..ErrorImpl$LT$E$GT$$u20$as$u20$core..fmt..Display$GT$3fmt17h63073cbee44b65bfE>
 - func[67] <__rust_alloc>
 - func[68] <__rust_dealloc>
 - func[69] <__rust_realloc>
 - func[70] <__rust_alloc_zeroed>
 - func[71] <__rust_alloc_error_handler>
 - func[72] <_ZN10extism_pdk6extism10load_input17h98cd9449a00920b1E>
 - func[73] <_ZN10extism_pdk6extism5store17h59119f8725bda41aE>
 - func[74] <_ZN10extism_pdk6memory6Memory6to_vec17hf550a4b4cc312058E>
 - func[75] <_ZN10extism_pdk6memory6Memory10set_output17hb3cf4ce71e4496d3E>
 - func[76] <_ZN77_$LT$extism_pdk..memory..Memory$u20$as$u20$core..convert..From$LT$i64$GT$$GT$4from17h0d848ab997a057edE>
 - func[77] <_ZN10extism_pdk11input_bytes17hb6bc04dcc6ab3e6bE>
 - func[78] <_ZN4core3ptr74drop_in_place$LT$core..option..Option$LT$std..backtrace..Backtrace$GT$$GT$17haddb812335865001E>
 - func[79] <_ZN4core5error5Error5cause17h87d8369588d91b22E>
 - func[80] <_ZN4core5error5Error5cause17h926d72a6b09dcf5dE>
 - func[81] <_ZN4core5error5Error7type_id17h6a702e869c2087adE>
 - func[82] <_ZN4core5error5Error7type_id17hd50155af1f1daa25E>
 - func[83] <_ZN6anyhow5error11object_drop17h596446c9fbb46b7aE>
 - func[84] <_ZN6anyhow5error15object_downcast17h67f6e8b675ecb626E>
 - func[85] <_ZN6anyhow5error17object_drop_front17h08cc4b0bc29dca60E>
 - func[86] <_ZN70_$LT$anyhow..error..ErrorImpl$LT$E$GT$$u20$as$u20$core..fmt..Debug$GT$3fmt17h3b3048ce8e223e16E>
 - func[87] <_ZN72_$LT$anyhow..error..ErrorImpl$LT$E$GT$$u20$as$u20$core..fmt..Display$GT$3fmt17h40a3ff9f8833d946E>
 - func[88] <_ZN85_$LT$std..sync..lazy_lock..LazyLock$LT$T$C$F$GT$$u20$as$u20$core..ops..drop..Drop$GT$4drop17h71860678c6f78d4cE>
 - func[89] <_ZN66_$LT$i64$u20$as$u20$extism_convert..from_bytes..FromBytesOwned$GT$16from_bytes_owned17h917c176987d4362bE>
 - func[90] <_ZN42_$LT$$RF$T$u20$as$u20$core..fmt..Debug$GT$3fmt17hda5785033ed89042E>
 - func[91] <_ZN70_$LT$alloc..vec..Vec$LT$T$C$A$GT$$u20$as$u20$core..ops..drop..Drop$GT$4drop17h272d8e0049369eebE>
 - func[92] <_ZN4core3ptr26drop_in_place$LT$usize$GT$17h4c3498389769757dE>
 - func[93] <_ZN4core3ptr51drop_in_place$LT$core..array..TryFromSliceError$GT$17h55fc80aeeff3bbb3E>
 - func[94] <_ZN4core3ptr83drop_in_place$LT$anyhow..error..ErrorImpl$LT$core..array..TryFromSliceError$GT$$GT$17h6d3eb4f9567e7aacE>
 - func[95] <_ZN4core5error5Error11description17h0050efb3d3ef41a0E>
 - func[96] <_ZN4core5error5Error6source17h5dbf9712ae5399c4E>
 - func[97] <_ZN4core5error5Error7provide17h0d4ad23138c12afaE>
 - func[98] <_ZN4core5error5Error7provide17hf6db82cffa13758bE>
 - func[99] <_ZN67_$LT$core..array..TryFromSliceError$u20$as$u20$core..fmt..Debug$GT$3fmt17hcdd719dc4652ca5cE>
 - func[100] <_ZN69_$LT$core..array..TryFromSliceError$u20$as$u20$core..error..Error$GT$11description17h38c5950d33bdf280E>
 - func[101] <_ZN69_$LT$core..array..TryFromSliceError$u20$as$u20$core..fmt..Display$GT$3fmt17h5ca8ce988735b0b4E>
 - func[102] <_ZN6anyhow5error10object_ref17h1beb0fdaaeb9f3a1E.llvm.16892013313707293455>
 - func[103] <_ZN6anyhow5error12no_backtrace17h206db79473c73424E.llvm.16892013313707293455>
 - func[104] <_ZN6anyhow5error12object_boxed17h92089598b541dd51E.llvm.16892013313707293455>
 - func[105] <_ZN6anyhow5error31_$LT$impl$u20$anyhow..Error$GT$9construct17h49687edb59a7f298E.llvm.16892013313707293455>
 - func[106] <_ZN6anyhow5error72_$LT$impl$u20$core..convert..From$LT$E$GT$$u20$for$u20$anyhow..Error$GT$4from17hec36e3561a7bf9b7E>
 - func[107] <_ZN4core3ptr37drop_in_place$LT$core..fmt..Error$GT$17hd0430d4327e7f8e4E>
 - func[108] <_ZN4core3ptr42drop_in_place$LT$alloc..string..String$GT$17h612bec53deefb341E>
 - func[109] <_ZN53_$LT$core..fmt..Error$u20$as$u20$core..fmt..Debug$GT$3fmt17h3c8eb51177be1431E>
 - func[110] <_ZN58_$LT$alloc..string..String$u20$as$u20$core..fmt..Debug$GT$3fmt17h9355f792e978a73cE>
 - func[111] <_ZN58_$LT$alloc..string..String$u20$as$u20$core..fmt..Write$GT$10write_char17h36d97d1c4726ee61E>
 - func[112] <_ZN58_$LT$alloc..string..String$u20$as$u20$core..fmt..Write$GT$9write_str17h932675f2c687b13fE>
 - func[113] <_ZN10serde_json5error5Error6syntax17hcf2464e96d648698E>
 - func[114] <_ZN67_$LT$serde_json..error..ErrorCode$u20$as$u20$core..fmt..Display$GT$3fmt17ha93854dbd261b59bE>
 - func[115] <_ZN63_$LT$serde_json..error..Error$u20$as$u20$core..error..Error$GT$6source17hcc0d52be7f9b60acE>
 - func[116] <_ZN63_$LT$serde_json..error..Error$u20$as$u20$core..fmt..Display$GT$3fmt17h1b459c2ba7910cb9E>
 - func[117] <_ZN61_$LT$serde_json..error..Error$u20$as$u20$core..fmt..Debug$GT$3fmt17h9733e9e837a6f09cE>
 - func[118] <_ZN61_$LT$serde_json..error..Error$u20$as$u20$serde..de..Error$GT$6custom17h1bdc2d3c05d55965E.llvm.9665005564904636706>
 - func[119] <_ZN10serde_json5error10make_error17h299d5646e1f5c61dE>
 - func[120] <_ZN61_$LT$serde_json..error..Error$u20$as$u20$serde..de..Error$GT$12invalid_type17hdf145dd51d6fac63E>
 - func[121] <_ZN72_$LT$serde_json..error..JsonUnexpected$u20$as$u20$core..fmt..Display$GT$3fmt17h403ffbd3ecd31e43E>
 - func[122] <_ZN61_$LT$serde_json..error..Error$u20$as$u20$serde..de..Error$GT$13invalid_value17hfde32ae7200bef05E>
 - func[123] <_ZN10serde_json2de12ParserNumber12invalid_type17hffeb46f7dffa2338E>
 - func[124] <_ZN44_$LT$$RF$T$u20$as$u20$core..fmt..Display$GT$3fmt17hbf4f337fb1fa1523E>
 - func[125] <_ZN4core3fmt5Write9write_fmt17h767ead49ef32e465E>
 - func[126] <_ZN4core3ptr205drop_in_place$LT$$LT$alloc..boxed..Box$LT$dyn$u20$core..error..Error$u2b$core..marker..Send$u2b$core..marker..Sync$GT$$u20$as$u20$core..convert..From$LT$alloc..string..String$GT$$GT$..from..StringError$GT$17he06e1efc5146ab5eE>
 - func[127] <_ZN58_$LT$alloc..string..String$u20$as$u20$core..fmt..Write$GT$10write_char17h36d97d1c4726ee61E>
 - func[128] <_ZN58_$LT$alloc..string..String$u20$as$u20$core..fmt..Write$GT$9write_str17h932675f2c687b13fE>
 - func[129] <_ZN44_$LT$$RF$T$u20$as$u20$core..fmt..Display$GT$3fmt17hf784e3036af55c4bE>
 - func[130] <_ZN5alloc7raw_vec11finish_grow17hbced5976ffca8891E.llvm.17818969842598828770>
 - func[131] <_ZN5alloc7raw_vec19RawVec$LT$T$C$A$GT$7reserve21do_reserve_and_handle17hf18501f43739fdf7E>
 - func[132] <_ZN5alloc7raw_vec19RawVec$LT$T$C$A$GT$8grow_one17hf424a92d3d7ffef1E>
 - func[133] <_ZN4core4char7methods15encode_utf8_raw17h8d8d7604367ece7dE>
 - func[134] <_ZN70_$LT$serde_json..read..SliceRead$u20$as$u20$serde_json..read..Read$GT$8position17h6ad6e16fd2b975ebE>
 - func[135] <_ZN70_$LT$serde_json..read..SliceRead$u20$as$u20$serde_json..read..Read$GT$13peek_position17h4b945887c7394f47E>
 - func[136] <_ZN70_$LT$serde_json..read..SliceRead$u20$as$u20$serde_json..read..Read$GT$9parse_str17h792329b82661d75cE>
 - func[137] <_ZN10serde_json4read12parse_escape17h085e7dfd8e5babfdE>
 - func[138] <_ZN70_$LT$serde_json..read..SliceRead$u20$as$u20$serde_json..read..Read$GT$10ignore_str17h04eaeaf9df5b67e9E>
 - func[139] <_ZN70_$LT$serde_json..read..SliceRead$u20$as$u20$serde_json..read..Read$GT$17decode_hex_escape17h5b130f80ad3f4319E>
 - func[140] <_ZN10serde_json4read11peek_or_eof17h64a7395a2cde1b5bE>
 - func[141] <_ZN10serde_json4read5error17h8cf867fa88878ebfE>
 - func[142] <_ZN10serde_json4read12parse_escape16encode_surrogate17hec7670e6d9382bc1E>
 - func[143] <_ZN5alloc3vec16Vec$LT$T$C$A$GT$17extend_from_slice17h99ea9ac32712529eE>
 - func[144] <_ZN3ryu6pretty8mantissa19write_mantissa_long17h5b4dd8bea4637dcdE>
 - func[145] <_ZN3ryu6pretty8format6417ha05332ef29b82f13E>
 - func[146] <_ZN4core3fmt5Write9write_fmt17h68bf47748adb2a6bE>
 - func[147] <_ZN4core3ptr112drop_in_place$LT$$LT$serde..de..WithDecimalPoint$u20$as$u20$core..fmt..Display$GT$..fmt..LookForDecimalPoint$GT$17haf6d6767153ec90bE>
 - func[148] <_ZN60_$LT$serde..de..Unexpected$u20$as$u20$core..fmt..Display$GT$3fmt17h91eef5a00191b720E>
 - func[149] <_ZN66_$LT$serde..de..WithDecimalPoint$u20$as$u20$core..fmt..Display$GT$3fmt17h72518f5eb8fb0904E>
 - func[150] <_ZN47_$LT$$RF$str$u20$as$u20$serde..de..Expected$GT$3fmt17hed40e77e00242c06E>
 - func[151] <_ZN66_$LT$dyn$u20$serde..de..Expected$u20$as$u20$core..fmt..Display$GT$3fmt17h1397c36fdafa70a5E>
 - func[152] <_ZN128_$LT$$LT$serde..de..WithDecimalPoint$u20$as$u20$core..fmt..Display$GT$..fmt..LookForDecimalPoint$u20$as$u20$core..fmt..Write$GT$9write_str17hf4dcb8f52a4157b1E>
 - func[153] <_ZN128_$LT$$LT$serde..de..WithDecimalPoint$u20$as$u20$core..fmt..Display$GT$..fmt..LookForDecimalPoint$u20$as$u20$core..fmt..Write$GT$10write_char17h53a872306cf84f59E>
 - func[154] <_ZN42_$LT$$RF$T$u20$as$u20$core..fmt..Debug$GT$3fmt17hc9f1d85dc7c7bc5eE>
 - func[155] <_ZN143_$LT$serde..de..impls..$LT$impl$u20$serde..de..Deserialize$u20$for$u20$i64$GT$..deserialize..PrimitiveVisitor$u20$as$u20$serde..de..Visitor$GT$9expecting17hbbebc2ebbc6e1671E>
 - func[156] <_ZN44_$LT$$RF$T$u20$as$u20$core..fmt..Display$GT$3fmt17h2deedc2bd2a7c30fE>
 - func[157] <_ZN4core3fmt5Write9write_fmt17ha4d742e1f6e39a2fE>
 - func[158] <_ZN4core3ptr42drop_in_place$LT$alloc..string..String$GT$17h5e8acb5585233a79E>
 - func[159] <_ZN4core5slice5index5range17h744ad5edcc76a6abE>
 - func[160] <_ZN58_$LT$alloc..string..String$u20$as$u20$core..fmt..Write$GT$10write_char17h36d97d1c4726ee61E>
 - func[161] <_ZN5alloc7raw_vec19RawVec$LT$T$C$A$GT$8grow_one17h4aee2dcdd3dfb194E>
 - func[162] <_ZN5alloc7raw_vec19RawVec$LT$T$C$A$GT$7reserve21do_reserve_and_handle17h0cc3963ef4f47d9fE>
 - func[163] <_ZN58_$LT$alloc..string..String$u20$as$u20$core..fmt..Write$GT$9write_str17h932675f2c687b13fE>
 - func[164] <_ZN5alloc6string6String13replace_range17hfd12e869775d44dfE>
 - func[165] <_ZN5alloc7raw_vec11finish_grow17h166080c0da7b4fc4E.llvm.14897176874709543215>
 - func[166] <_ZN4core3str21_$LT$impl$u20$str$GT$16trim_end_matches17h9224ac27b10a805eE>
 - func[167] <_ZN81_$LT$alloc..vec..splice..Splice$LT$I$C$A$GT$$u20$as$u20$core..ops..drop..Drop$GT$4drop17h385c5ef3887487cfE>
 - func[168] <_ZN6anyhow5error60_$LT$impl$u20$core..fmt..Debug$u20$for$u20$anyhow..Error$GT$3fmt17h34e413ab5fa0fb0dE>
 - func[169] <_ZN6anyhow5error65_$LT$impl$u20$core..ops..drop..Drop$u20$for$u20$anyhow..Error$GT$4drop17h79111a42652b3c3dE>
 - func[170] <_ZN4core3fmt9Formatter9write_fmt17hc71e518628a78d07E>
 - func[171] <_ZN4core3ptr37drop_in_place$LT$core..fmt..Error$GT$17hf2e74aad5d2bd585E>
 - func[172] <_ZN4core3ptr42drop_in_place$LT$alloc..string..String$GT$17h5e8acb5585233a79E>
 - func[173] <_ZN4core3ptr70drop_in_place$LT$anyhow..fmt..Indented$LT$core..fmt..Formatter$GT$$GT$17he9055561e2657f12E>
 - func[174] <_ZN53_$LT$core..fmt..Error$u20$as$u20$core..fmt..Debug$GT$3fmt17h3c8eb51177be1431E>
 - func[175] <_ZN58_$LT$alloc..string..String$u20$as$u20$core..fmt..Write$GT$10write_char17h36d97d1c4726ee61E>
 - func[176] <_ZN58_$LT$alloc..string..String$u20$as$u20$core..fmt..Write$GT$9write_str17h932675f2c687b13fE>
 - func[177] <_ZN60_$LT$alloc..string..String$u20$as$u20$core..fmt..Display$GT$3fmt17hdc6c0eb27a5fac8aE>
 - func[178] <_ZN6anyhow5error9ErrorImpl5error17hfdfe4ec665284038E>
 - func[179] <_ZN6anyhow3fmt42_$LT$impl$u20$anyhow..error..ErrorImpl$GT$5debug17h1e3fb8bcac56a53aE>
 - func[180] <_ZN4core3fmt5Write10write_char17h59db31d6096be93aE>
 - func[181] <_ZN67_$LT$anyhow..fmt..Indented$LT$T$GT$$u20$as$u20$core..fmt..Write$GT$9write_str17h31bcf0f81168935aE>
 - func[182] <_ZN4core3fmt5Write9write_fmt17h4394b82d097e79c4E>
 - func[183] <_ZN4core3ptr40drop_in_place$LT$anyhow..ensure..Buf$GT$17hcb1643bbd4c9f17cE>
 - func[184] <_ZN36_$LT$T$u20$as$u20$core..any..Any$GT$7type_id17h88d3cb239ded0a8bE>
 - func[185] <_ZN36_$LT$T$u20$as$u20$core..any..Any$GT$7type_id17h9571516faba776b2E>
 - func[186] <_ZN36_$LT$T$u20$as$u20$core..any..Any$GT$7type_id17heb1b6f3656f479feE>
 - func[187] <_ZN42_$LT$$RF$T$u20$as$u20$core..fmt..Debug$GT$3fmt17h14763f8aa15690f8E>
 - func[188] <_ZN69_$LT$std..sys..os_str..bytes..Slice$u20$as$u20$core..fmt..Display$GT$3fmt17h17d63d8a500a28beE>
 - func[189] <_ZN44_$LT$$RF$T$u20$as$u20$core..fmt..Display$GT$3fmt17h6b46d3751c4e6376E>
 - func[190] <_ZN5alloc7raw_vec19RawVec$LT$T$C$A$GT$7reserve21do_reserve_and_handle17h95d0e43a1ec4579dE>
 - func[191] <_ZN4core3fmt5Write9write_fmt17h5450563fbb96cb70E>
 - func[192] <_ZN4core3ops8function6FnOnce40call_once$u7b$$u7b$vtable.shim$u7d$$u7d$17h200285c5e14f2ffcE>
 - func[193] <_ZN4core3ptr118drop_in_place$LT$$LT$std..backtrace..Backtrace$u20$as$u20$core..fmt..Display$GT$..fmt..$u7b$$u7b$closure$u7d$$u7d$$GT$17hf5aae282f3e5791cE>
 - func[194] <_ZN4core3ptr122drop_in_place$LT$$RF$alloc..boxed..Box$LT$dyn$u20$core..error..Error$u2b$core..marker..Send$u2b$core..marker..Sync$GT$$GT$17hafb4b80ed40fbfe0E>
 - func[195] <_ZN4core3ptr29drop_in_place$LT$$LP$$RP$$GT$17hf58ee1d6076085b1E>
 - func[196] <_ZN4core3ptr42drop_in_place$LT$alloc..string..String$GT$17he0b9c7b9b779f017E>
 - func[197] <_ZN4core3ptr77drop_in_place$LT$std..panicking..begin_panic_handler..FormatStringPayload$GT$17h0cdb96bb4afb8b69E>
 - func[198] <_ZN4core9panicking13assert_failed17h690f3bdf8855e416E>
 - func[199] <_ZN50_$LT$$BP$mut$u20$T$u20$as$u20$core..fmt..Debug$GT$3fmt17hb396f8762c49fd69E>
 - func[200] <_ZN58_$LT$alloc..string..String$u20$as$u20$core..fmt..Write$GT$10write_char17h36d97d1c4726ee61E>
 - func[201] <_ZN5alloc7raw_vec19RawVec$LT$T$C$A$GT$8grow_one17h249dd74981fa9ca3E>
 - func[202] <_ZN58_$LT$alloc..string..String$u20$as$u20$core..fmt..Write$GT$9write_str17h932675f2c687b13fE>
 - func[203] <_ZN5alloc7raw_vec11finish_grow17ha0fc23de3e124241E>
 - func[204] <_ZN60_$LT$alloc..string..String$u20$as$u20$core..fmt..Display$GT$3fmt17hdc6c0eb27a5fac8aE>
 - func[205] <_ZN8dlmalloc8dlmalloc17Dlmalloc$LT$A$GT$12unlink_chunk17h8d0d81757dd7de5dE>
 - func[206] <_ZN8dlmalloc8dlmalloc17Dlmalloc$LT$A$GT$13dispose_chunk17hc51238bb547bf9d7E>
 - func[207] <_ZN8dlmalloc8dlmalloc17Dlmalloc$LT$A$GT$18insert_large_chunk17h67b2ff06c0e8b9e0E>
 - func[208] <_ZN8dlmalloc8dlmalloc17Dlmalloc$LT$A$GT$4free17h21bf9d7572bd86f3E>
 - func[209] <_ZN8dlmalloc8dlmalloc17Dlmalloc$LT$A$GT$6malloc17h0483a0dc0f5e490bE>
 - func[210] <_ZN8dlmalloc8dlmalloc17Dlmalloc$LT$A$GT$8memalign17hae661cd81f1d1708E>
 - func[211] <_ZN3std3sys4sync4once10no_threads4Once4call17h61ee0b8e18c5555fE>
 - func[212] <_ZN79_$LT$std..backtrace_rs..symbolize..SymbolName$u20$as$u20$core..fmt..Display$GT$3fmt17h17dfd954c032b1d6E>
 - func[213] <_ZN3std9backtrace9Backtrace7capture17hc0c5f1c907448d9dE>
 - func[214] <_ZN64_$LT$std..backtrace..Backtrace$u20$as$u20$core..fmt..Display$GT$3fmt17he7e239f78d6c9122E>
 - func[215] <_ZN3std12backtrace_rs5print17BacktraceFrameFmt21print_raw_with_column17hf2c29a0ac3db7e64E>
 - func[216] <_ZN64_$LT$std..backtrace..Backtrace$u20$as$u20$core..fmt..Display$GT$3fmt28_$u7b$$u7b$closure$u7d$$u7d$17h1414633b5015c602E>
 - func[217] <_ZN60_$LT$std..io..error..Error$u20$as$u20$core..fmt..Display$GT$3fmt17hbda3a27c1eb6710cE>
 - func[218] <_ZN60_$LT$std..io..error..Error$u20$as$u20$core..error..Error$GT$6source17h798e753712748899E>
 - func[219] <_ZN3std10sys_common9backtrace26__rust_end_short_backtrace17hbdf3ddeb21a1e747E>
 - func[220] <_ZN3std9panicking19begin_panic_handler28_$u7b$$u7b$closure$u7d$$u7d$17hb6cd8464ed39ae71E>
 - func[221] <_ZN3std5alloc24default_alloc_error_hook17h9d6d7bb51d97ec4fE>
 - func[222] <__rdl_alloc>
 - func[223] <__rdl_dealloc>
 - func[224] <__rdl_realloc>
 - func[225] <__rdl_alloc_zeroed>
 - func[226] <rust_begin_unwind>
 - func[227] <_ZN102_$LT$std..panicking..begin_panic_handler..FormatStringPayload$u20$as$u20$core..panic..PanicPayload$GT$8take_box17he725486881b42bbeE>
 - func[228] <_ZN102_$LT$std..panicking..begin_panic_handler..FormatStringPayload$u20$as$u20$core..panic..PanicPayload$GT$3get17ha699b76f30386534E>
 - func[229] <_ZN99_$LT$std..panicking..begin_panic_handler..StaticStrPayload$u20$as$u20$core..panic..PanicPayload$GT$8take_box17h00db27ffc0f86bc9E>
 - func[230] <_ZN99_$LT$std..panicking..begin_panic_handler..StaticStrPayload$u20$as$u20$core..panic..PanicPayload$GT$3get17h25e87be0acf0cba3E>
 - func[231] <_ZN3std9panicking20rust_panic_with_hook17h6731baa78621a747E>
 - func[232] <rust_panic>
 - func[233] <__rg_oom>
 - func[234] <__rust_start_panic>
 - func[235] <_ZN61_$LT$dlmalloc..sys..System$u20$as$u20$dlmalloc..Allocator$GT$5alloc17h32bf5aa7613bca1cE>
 - func[236] <_ZN104_$LT$core..iter..sources..from_fn..FromFn$LT$F$GT$$u20$as$u20$core..iter..traits..iterator..Iterator$GT$4next17he72b0fec072444acE>
 - func[237] <_ZN81_$LT$core..str..iter..Chars$u20$as$u20$core..iter..traits..iterator..Iterator$GT$5count17h752ef6142eb5b05fE>
 - func[238] <_ZN42_$LT$$RF$T$u20$as$u20$core..fmt..Debug$GT$3fmt17h007b92949007655cE>
 - func[239] <_ZN50_$LT$$RF$mut$u20$T$u20$as$u20$core..fmt..Debug$GT$3fmt17h2e9209fe216a99cdE>
 - func[240] <_ZN42_$LT$$RF$T$u20$as$u20$core..fmt..Debug$GT$3fmt17h004e705c49e70e5dE>
 - func[241] <_ZN42_$LT$$RF$T$u20$as$u20$core..fmt..Debug$GT$3fmt17hf7b687bde8294458E>
 - func[242] <_ZN44_$LT$$RF$T$u20$as$u20$core..fmt..Display$GT$3fmt17he408656639b09253E>
 - func[243] <_ZN71_$LT$rustc_demangle..legacy..Demangle$u20$as$u20$core..fmt..Display$GT$3fmt17hea1262fa5364aa2fE>
 - func[244] <_ZN14rustc_demangle2v07Printer10print_path17h84e604bcaa186aa9E>
 - func[245] <_ZN45_$LT$$LP$$RP$$u20$as$u20$core..fmt..Debug$GT$3fmt17h675d5aaad6bc9529E>
 - func[246] <_ZN4core3fmt5Write10write_char17h9ae3120669e0ceb2E>
 - func[247] <_ZN4core3fmt5Write9write_fmt17h3b40b0bb0d363359E>
 - func[248] <_ZN4core3ptr27drop_in_place$LT$$RF$u8$GT$17hfc8981ef1a07c114E>
 - func[249] <_ZN4core3ptr29drop_in_place$LT$$LP$$RP$$GT$17hc8c906ef0ecd9de6E>
 - func[250] <_ZN4core3ptr52drop_in_place$LT$core..num..error..ParseIntError$GT$17ha572b28df0d41af6E>
 - func[251] <_ZN4core3str6traits110_$LT$impl$u20$core..slice..index..SliceIndex$LT$str$GT$$u20$for$u20$core..ops..range..RangeTo$LT$usize$GT$$GT$5index17h94b22853d1612ea2E>
 - func[252] <_ZN4core3str7pattern14TwoWaySearcher4next17hb60c78167d7bc6a3E>
 - func[253] <_ZN4core4char7methods22_$LT$impl$u20$char$GT$16escape_debug_ext17hd6fbfdded298ac3fE>
 - func[254] <_ZN53_$LT$core..fmt..Error$u20$as$u20$core..fmt..Debug$GT$3fmt17h3c8eb51177be1431E>
 - func[255] <_ZN68_$LT$core..num..error..ParseIntError$u20$as$u20$core..fmt..Debug$GT$3fmt17h05b182d52c6aacd7E>
 - func[256] <_ZN80_$LT$core..str..pattern..StrSearcher$u20$as$u20$core..str..pattern..Searcher$GT$4next17he1088867e674aaf9E>
 - func[257] <_ZN81_$LT$core..str..pattern..CharSearcher$u20$as$u20$core..str..pattern..Searcher$GT$10next_match17hd4cafa9c89d26672E>
 - func[258] <_ZN64_$LT$rustc_demangle..v0..Ident$u20$as$u20$core..fmt..Display$GT$3fmt17h24652e4c70655832E>
 - func[259] <_ZN14rustc_demangle2v010HexNibbles14try_parse_uint17h1d353e42c139bd88E>
 - func[260] <_ZN14rustc_demangle2v06Parser11hex_nibbles17h0f0ac6ead1870fd7E>
 - func[261] <_ZN14rustc_demangle2v06Parser10integer_6217h8d06fb089542e429E>
 - func[262] <_ZN14rustc_demangle2v06Parser14opt_integer_6217h90d064e505495709E>
 - func[263] <_ZN14rustc_demangle2v06Parser5ident17h351120bf79414a58E>
 - func[264] <_ZN14rustc_demangle2v07Printer17skipping_printing17h03728fa55d9b4819E>
 - func[265] <_ZN14rustc_demangle2v07Printer13print_backref17h60aee7e5c4eab238E>
 - func[266] <_ZN14rustc_demangle2v07Printer10print_type17h5e743befe7e4d123E>
 - func[267] <_ZN14rustc_demangle2v07Printer13print_backref17hb1a7388a78492a84E>
 - func[268] <_ZN14rustc_demangle2v07Printer11print_const17h1c5eb180bcdeacedE>
 - func[269] <_ZN14rustc_demangle2v07Printer13print_backref17hf32ede7ec01d937aE>
 - func[270] <_ZN14rustc_demangle2v07Printer26print_quoted_escaped_chars17h1ff7b79ab9fe686aE>
 - func[271] <_ZN14rustc_demangle2v07Printer25print_lifetime_from_index17h8810c378a8445bb8E>
 - func[272] <_ZN14rustc_demangle2v07Printer9in_binder17hcd8eb0007553e771E>
 - func[273] <_ZN14rustc_demangle2v07Printer10print_type28_$u7b$$u7b$closure$u7d$$u7d$17h0ca25068b60b2803E>
 - func[274] <_ZN14rustc_demangle2v07Printer9in_binder17hf5143a664daabd99E>
 - func[275] <_ZN14rustc_demangle2v07Printer15print_dyn_trait17hb68098c1f1275326E>
 - func[276] <_ZN14rustc_demangle2v07Printer14print_sep_list17h2b0ca2a3c5b9dea3E>
 - func[277] <_ZN14rustc_demangle2v07Printer14print_sep_list17h2b8382ab255e1a75E>
 - func[278] <_ZN14rustc_demangle2v07Printer17print_generic_arg17heec9a3b4071eef84E>
 - func[279] <_ZN14rustc_demangle2v07Printer14print_sep_list17h7d2074918f3f2f49E>
 - func[280] <_ZN14rustc_demangle2v07Printer14print_sep_list17h84aaa3586b8c1fecE>
 - func[281] <_ZN14rustc_demangle2v07Printer14print_sep_list17hbdf2deeedd0414b4E>
 - func[282] <_ZN14rustc_demangle2v07Printer30print_path_maybe_open_generics17h19447d3acb1368d8E>
 - func[283] <_ZN14rustc_demangle2v07Printer23print_const_str_literal17h31e1e29ae28ed7a3E>
 - func[284] <_ZN14rustc_demangle2v07Printer16print_const_uint17h50f66ad390d98f5fE>
 - func[285] <_ZN14rustc_demangle8demangle17hf0be5a10d5bce69fE>
 - func[286] <_ZN14rustc_demangle12try_demangle17hf3b7dbdc66a96f6aE>
 - func[287] <_ZN83_$LT$rustc_demangle..SizeLimitedFmtAdapter$LT$F$GT$$u20$as$u20$core..fmt..Write$GT$9write_str17hd709db41e5a9bc5dE>
 - func[288] <_ZN63_$LT$rustc_demangle..Demangle$u20$as$u20$core..fmt..Display$GT$3fmt17hcdf6de356ba597feE>
 - func[289] <_ZN71_$LT$rustc_demangle..SizeLimitExhausted$u20$as$u20$core..fmt..Debug$GT$3fmt17h45eb7a12e2646ed1E>
 - func[290] <_ZN4core3fmt5Write9write_fmt17h98da3c7a6c0e4b88E>
 - func[291] <_ZN4core3ptr37drop_in_place$LT$core..fmt..Error$GT$17hb86a4f024a02e7cdE>
 - func[292] <_ZN4core3ptr42drop_in_place$LT$alloc..string..String$GT$17hde6f6913cec078eeE>
 - func[293] <_ZN53_$LT$core..fmt..Error$u20$as$u20$core..fmt..Debug$GT$3fmt17h3c8eb51177be1431E>
 - func[294] <_ZN5alloc7raw_vec17capacity_overflow17ha85462faabb43c69E>
 - func[295] <_ZN5alloc7raw_vec19RawVec$LT$T$C$A$GT$7reserve21do_reserve_and_handle17h68bee04e0e455105E>
 - func[296] <_ZN5alloc7raw_vec12handle_error17h6991f391977ec209E>
 - func[297] <_ZN5alloc7raw_vec11finish_grow17h9d985971ceab9880E>
 - func[298] <_ZN5alloc7raw_vec19RawVec$LT$T$C$A$GT$8grow_one17h92fd50a6e0ef6b8fE>
 - func[299] <_ZN5alloc5alloc18handle_alloc_error17h246ea5f196567ce5E>
 - func[300] <_ZN5alloc3fmt6format12format_inner17hdab397b1dc5a3b03E>
 - func[301] <_ZN5alloc6string6String4push17h382987dcdc2f3ea1E>
 - func[302] <_ZN58_$LT$alloc..string..String$u20$as$u20$core..fmt..Write$GT$9write_str17h932675f2c687b13fE>
 - func[303] <_ZN58_$LT$alloc..string..String$u20$as$u20$core..fmt..Write$GT$10write_char17h36d97d1c4726ee61E>
 - func[304] <_ZN4core3ptr25drop_in_place$LT$char$GT$17hfb2245d869b41a19E>
 - func[305] <_ZN4core3ptr37drop_in_place$LT$core..fmt..Error$GT$17h1c3f1cbd1368fccaE>
 - func[306] <_ZN4core9panicking9panic_fmt17h5c7ce52813e94bcdE>
 - func[307] <_ZN4core5slice5index26slice_start_index_len_fail17hdf8c0aea852237a1E>
 - func[308] <_ZN4core9panicking18panic_bounds_check17h24953fa031ee3e13E>
 - func[309] <_ZN4core5slice5index24slice_end_index_len_fail17hf69e11a376ccfddbE>
 - func[310] <_ZN4core3fmt9Formatter3pad17hbad76490c47154d2E>
 - func[311] <_ZN4core9panicking5panic17h3b99507adb69386aE>
 - func[312] <_ZN4core9panicking13assert_failed17h6a90bb8f78ebb29bE>
 - func[313] <_ZN4core3num7flt2dec8strategy6dragon9mul_pow1017hf2b36942205b7ee0E>
 - func[314] <_ZN4core3num6bignum8Big32x4010mul_digits17h975a7a69ffdc8c3fE>
 - func[315] <_ZN4core3num7flt2dec8strategy6dragon15format_shortest17h488109e3398ee326E>
 - func[316] <_ZN4core3num6bignum8Big32x408mul_pow217h1540d9e6747bb030E>
 - func[317] <_ZN4core3num7flt2dec8strategy6dragon12format_exact17h8270a2f8cd57f21aE>
 - func[318] <_ZN4core3num7flt2dec8strategy5grisu19format_shortest_opt17h2ccc4dfd6ad4e028E>
 - func[319] <_ZN4core9panicking11panic_const23panic_const_div_by_zero17h22ae5ed81ae7585cE>
 - func[320] <_ZN4core3num7flt2dec8strategy5grisu16format_exact_opt17h72bd3644793cda4dE>
 - func[321] <_ZN4core3num7flt2dec8strategy5grisu16format_exact_opt14possibly_round17hdda27a3cbfa9b528E>
 - func[322] <_ZN4core3num7flt2dec17digits_to_dec_str17h9e6775b00d84c909E>
 - func[323] <_ZN4core3num23from_str_radix_panic_rt17h717678f0852fe055E>
 - func[324] <_ZN4core3fmt3num3imp52_$LT$impl$u20$core..fmt..Display$u20$for$u20$u32$GT$3fmt17h85fc646d908d0c7bE>
 - func[325] <_ZN4core3num21from_str_radix_assert17h5e09c51bfb2726aaE>
 - func[326] <_ZN4core3fmt3num50_$LT$impl$u20$core..fmt..Debug$u20$for$u20$u32$GT$3fmt17h6dbb21529d389504E>
 - func[327] <_ZN4core3fmt5write17hbee61cd3fb7b52a3E>
 - func[328] <_ZN71_$LT$core..ops..range..Range$LT$Idx$GT$$u20$as$u20$core..fmt..Debug$GT$3fmt17ha51f9fe0f83a6904E>
 - func[329] <_ZN36_$LT$T$u20$as$u20$core..any..Any$GT$7type_id17h4e5a4609280a40f1E>
 - func[330] <_ZN4core5slice5index22slice_index_order_fail17h290993cce6d00be4E>
 - func[331] <_ZN4core4char7methods22_$LT$impl$u20$char$GT$16escape_debug_ext17hd6fbfdded298ac3fE>
 - func[332] <_ZN4core7unicode12unicode_data15grapheme_extend11lookup_slow17hae75143cd20a0835E>
 - func[333] <_ZN4core7unicode9printable12is_printable17h230dbbf0f4101f74E>
 - func[334] <_ZN4core4char13EscapeUnicode3new17hd360c35b4fd50ce7E>
 - func[335] <_ZN4core4char11EscapeDebug9backslash17h6d5e6d562b4c3bd4E>
 - func[336] <_ZN4core4char11EscapeDebug5clear17hd489a949d23fee6fE>
 - func[337] <_ZN4core3str8converts9from_utf817h827a506db57c9fc0E>
 - func[338] <_ZN4core3fmt8builders11DebugStruct5field17h04cadba0a8386f18E>
 - func[339] <_ZN4core3fmt3num3imp51_$LT$impl$u20$core..fmt..Display$u20$for$u20$u8$GT$3fmt17h773d29d0e82b9bd0E>
 - func[340] <_ZN4core6result13unwrap_failed17h4ed86702351a3017E>
 - func[341] <_ZN4core6option13unwrap_failed17h0d060778de0f79e8E>
 - func[342] <_ZN4core6option13expect_failed17h637b3c5bf9792ea8E>
 - func[343] <_ZN4core9panicking13panic_display17hbd841ae85eb3dff4E>
 - func[344] <_ZN44_$LT$$RF$T$u20$as$u20$core..fmt..Display$GT$3fmt17h87ef43d072a4bed1E>
 - func[345] <_ZN4core9panicking19assert_failed_inner17h95edf372af7e7269E>
 - func[346] <_ZN42_$LT$$RF$T$u20$as$u20$core..fmt..Debug$GT$3fmt17h7a9a11a22d9e302cE>
 - func[347] <_ZN59_$LT$core..fmt..Arguments$u20$as$u20$core..fmt..Display$GT$3fmt17h9e328ff30fa0b781E>
 - func[348] <_ZN68_$LT$core..fmt..builders..PadAdapter$u20$as$u20$core..fmt..Write$GT$9write_str17he0e73688d1af7a7cE>
 - func[349] <_ZN68_$LT$core..fmt..builders..PadAdapter$u20$as$u20$core..fmt..Write$GT$10write_char17h030517870a05e9b3E>
 - func[350] <_ZN4core3fmt8builders10DebugTuple5field17he64b93765707a70bE>
 - func[351] <_ZN4core3fmt8builders8DebugSet5entry17hc4ef89b349185074E>
 - func[352] <_ZN4core3fmt8builders9DebugList6finish17h6437239b8af24389E>
 - func[353] <_ZN4core3fmt5float29float_to_decimal_common_exact17h6ee626c85f2e9517E>
 - func[354] <_ZN4core3fmt9Formatter19pad_formatted_parts17hdcadc704d1995422E>
 - func[355] <_ZN4core3fmt5float32float_to_decimal_common_shortest17h47190af7019d0f5aE>
 - func[356] <_ZN4core3fmt9Formatter12pad_integral17hcbbcc5e70706fcddE>
 - func[357] <_ZN4core3fmt5Write9write_fmt17hf49084f2671582bdE>
 - func[358] <_ZN4core3str5count14do_count_chars17h66d99444d2bc554aE>
 - func[359] <_ZN4core3fmt9Formatter12pad_integral12write_prefix17h45be8b7045bf0ef1E>
 - func[360] <_ZN4core3fmt9Formatter21write_formatted_parts17hb91ef84bd177ab23E>
 - func[361] <_ZN4core3fmt9Formatter9write_str17hb14ec2e1267025f3E>
 - func[362] <_ZN4core3fmt9Formatter26debug_struct_field1_finish17h21965aa73a49103aE>
 - func[363] <_ZN4core3fmt9Formatter25debug_tuple_field1_finish17h32ff83f3e7ecdfa2E>
 - func[364] <_ZN4core3fmt9Formatter10debug_list17h020b602aa898bb4dE>
 - func[365] <_ZN57_$LT$core..fmt..Formatter$u20$as$u20$core..fmt..Write$GT$10write_char17h915b0b91af6931d7E>
 - func[366] <_ZN43_$LT$bool$u20$as$u20$core..fmt..Display$GT$3fmt17hfcbfdd782373a372E>
 - func[367] <_ZN40_$LT$str$u20$as$u20$core..fmt..Debug$GT$3fmt17hd1ff027f6ce692dbE>
 - func[368] <_ZN4core3str16slice_error_fail17hf299654af5b25f82E>
 - func[369] <_ZN42_$LT$str$u20$as$u20$core..fmt..Display$GT$3fmt17h3b4f01a80b9664d6E>
 - func[370] <_ZN41_$LT$char$u20$as$u20$core..fmt..Debug$GT$3fmt17h5885283e9b0736c5E>
 - func[371] <_ZN43_$LT$char$u20$as$u20$core..fmt..Display$GT$3fmt17ha450893e06223bafE>
 - func[372] <_ZN4core3fmt17pointer_fmt_inner17h405872dcf4dda6d2E>
 - func[373] <_ZN4core5slice6memchr14memchr_aligned17h2cc3a36050ee0a77E>
 - func[374] <_ZN4core5slice5index29slice_start_index_len_fail_rt17h457337ef10e44172E>
 - func[375] <_ZN4core5slice5index27slice_end_index_len_fail_rt17hc159f02ee83c16faE>
 - func[376] <_ZN4core5slice5index25slice_index_order_fail_rt17h1310500fac7dbf76E>
 - func[377] <_ZN4core5slice5index31slice_start_index_overflow_fail17h35d67a6cfc2e35acE>
 - func[378] <_ZN4core5slice5index29slice_end_index_overflow_fail17h292136872ad585b7E>
 - func[379] <_ZN4core3str5count23char_count_general_case17h1f58ff1f44535028E>
 - func[380] <_ZN4core3str6traits23str_index_overflow_fail17h11774b6a99626920E>
 - func[381] <_ZN4core3str7pattern11StrSearcher3new17ha5dc9f6b7aeb2b13E>
 - func[382] <_ZN87_$LT$core..str..lossy..Utf8Chunks$u20$as$u20$core..iter..traits..iterator..Iterator$GT$4next17hd54b7ec5c418cfe8E>
 - func[383] <_ZN4core3fmt3num52_$LT$impl$u20$core..fmt..UpperHex$u20$for$u20$i8$GT$3fmt17h4f54dcf9028c66e2E>
 - func[384] <_ZN4core3str19slice_error_fail_rt17h7d3e01e1a2d58e61E>
 - func[385] <_ZN4core3fmt3num3imp52_$LT$impl$u20$core..fmt..Display$u20$for$u20$u64$GT$3fmt17hf705bcfd867ab9d4E>
 - func[386] <_ZN4core7unicode9printable5check17h84062b75a9e2eb0dE>
 - func[387] <_ZN4core3fmt3num52_$LT$impl$u20$core..fmt..LowerHex$u20$for$u20$i8$GT$3fmt17haea60f5418a9440dE>
 - func[388] <_ZN4core3num21_$LT$impl$u20$u32$GT$14from_str_radix17hc78d5cd26a631d4aE>
 - func[389] <_ZN4core3num62_$LT$impl$u20$core..str..traits..FromStr$u20$for$u20$usize$GT$8from_str17hdb55e2acdb5087b9E>
 - func[390] <_ZN4core3fmt3num3imp7fmt_u6417haef35ab823acabf1E>
 - func[391] <_ZN4core3fmt3num50_$LT$impl$u20$core..fmt..Debug$u20$for$u20$u64$GT$3fmt17ha586b6f7ee3eb42dE>
 - func[392] <_ZN4core3fmt5float52_$LT$impl$u20$core..fmt..Display$u20$for$u20$f64$GT$3fmt17h49fda314c7f3aaebE>
 - func[393] <_ZN4core3fmt3num53_$LT$impl$u20$core..fmt..LowerHex$u20$for$u20$i64$GT$3fmt17h2bcbc8f239071b78E>
 - func[394] <_ZN4core3fmt3num3imp52_$LT$impl$u20$core..fmt..Display$u20$for$u20$i32$GT$3fmt17h200b2960d383772bE>
 - func[395] <_ZN4core3fmt3num3imp52_$LT$impl$u20$core..fmt..Display$u20$for$u20$i64$GT$3fmt17he62212bbe9521a6bE>
 - func[396] <_ZN42_$LT$$RF$T$u20$as$u20$core..fmt..Debug$GT$3fmt17hf029691c75fe4424E>
 - func[397] <_ZN4core7unicode12unicode_data2cc6lookup17hedeb1e51069009a4E>
 - func[398] <__lshrti3>
 - func[399] <__multi3>
 - func[400] <_ZN17compiler_builtins3mem6memcpy17he2d289fa2eb42ef2E>
 - func[401] <_ZN17compiler_builtins3mem7memmove17h269e2e7a3fe7eb2aE>
 - func[402] <_ZN17compiler_builtins3mem6memset17h7cd7cef2899efd6aE>
 - func[403] <_ZN17compiler_builtins3mem6memcmp17h95f992c5648d6561E>
 - func[404] <memcpy>
 - func[405] <memmove>
 - func[406] <memcmp>
 - func[407] <memset>
 - global[0] <__stack_pointer>
 - dataseg[0] <.rodata>
Custom:
 - name: "producers"
Custom:
 - name: "target_features"
  - [+] mutable-globals
  - [+] sign-ext